	.cpu generic+fp+simd
	.file	"vdm_hal_hevc.c"
	.text
.Ltext0:
	.cfi_sections	.debug_frame
#APP
	.irp	num,0,1,2,3,4,5,6,7,8,9,10,11,12,13,14,15,16,17,18,19,20,21,22,23,24,25,26,27,28,29,30
	.equ	__reg_num_x\num, \num
	.endr
	.equ	__reg_num_xzr, 31

	.macro	mrs_s, rt, sreg
	.inst	0xd5200000|(\sreg)|(__reg_num_\rt)
	.endm

	.macro	msr_s, sreg, rt
	.inst	0xd5000000|(\sreg)|(__reg_num_\rt)
	.endm

#NO_APP
	.align	2
	.global	HEVCWriteCabacTab
	.type	HEVCWriteCabacTab, %function
HEVCWriteCabacTab:
.LFB2130:
	.file 1 "/home/jenkins/slaves-220/workspace/chipset_component_VV_B100_Open_Source/component_code/vendor/huawei/extra/build/build_script/austin_kernel_release/kernel/drivers/vcodec/hi_vcodec/vdec/vfmw/vfmw_v4.0/firmware/driver/HiVDHV400R004/vdm_hal_hevc.c"
	.loc 1 181 0
	.cfi_startproc
.LVL0:
	stp	x29, x30, [sp, -32]!
	.cfi_def_cfa_offset 32
	.cfi_offset 29, -32
	.cfi_offset 30, -24
	.loc 1 185 0
	mov	w10, 0
.LVL1:
	.loc 1 187 0
	mov	w12, 0
.LVL2:
	.loc 1 181 0
	add	x29, sp, 0
	.cfi_def_cfa_register 29
	stp	x19, x20, [sp,16]
	.cfi_offset 19, -16
	.cfi_offset 20, -8
	adrp	x19, .LANCHOR1
	.loc 1 191 0
	mov	w11, 16
	adrp	x9, .LANCHOR0
	add	x19, x19, :lo12:.LANCHOR1
.LVL3:
.L3:
	sxtw	x7, w12
.LVL4:
	mov	w4, w11
	.loc 1 200 0
	lsl	x13, x7, 7
	sub	w8, w10, w11
	add	x7, x13, x7, lsl 5
.LVL5:
.L2:
	add	x20, x9, :lo12:.LANCHOR0
	add	x1, x7, x4, sxtw
	add	w5, w8, w4
	.loc 1 198 0
	add	w4, w4, 1
	sbfiz	x5, x5, 1, 32
	.loc 1 200 0
	ldr	w6, [x20,x1,lsl 2]
.LVL6:
	add	x2, x19, x5
.LVL7:
	.loc 1 210 0
	and	w3, w6, 15
.LVL8:
	.loc 1 209 0
	asr	w1, w6, 4
.LVL9:
	.loc 1 212 0
	lsl	w3, w3, 3
.LVL10:
	cmn	w6, #1
	sub	w3, w3, #16
	.loc 1 211 0
	add	w1, w1, w1, lsl 2
.LVL11:
	csel	w3, w3, wzr, ne
	sub	w1, w1, #45
	cmn	w6, #1
	strb	w3, [x2,1]
	csel	w1, w1, wzr, ne
	.loc 1 198 0 discriminator 1
	cmp	w4, 160
	strb	w1, [x19,x5]
	bne	.L2
.LVL12:
	.loc 1 187 0 discriminator 2
	add	w12, w12, 1
	add	w10, w10, 160
.LVL13:
	.loc 1 187 0 is_stmt 0 discriminator 1
	cmp	w12, 3
	sub	w10, w10, w11
.LVL14:
	mov	w11, 0
	bne	.L3
	.loc 1 219 0 is_stmt 1
	bl	MEM_Phy2Vir
.LVL15:
	add	x2, x19, 928
.LVL16:
	.loc 1 220 0
	cbz	x0, .L12
.L7:
	.loc 1 224 0
	ldrsb	w1, [x19]
	add	x19, x19, 2
	strb	w1, [x0,1]
	.loc 1 222 0 discriminator 1
	cmp	x19, x2
	.loc 1 225 0
	ldrsb	w1, [x19,-1]
	strb	w1, [x0],2
	.loc 1 222 0 discriminator 1
	bne	.L7
	.loc 1 229 0
	mov	w0, 0
.LVL17:
.L5:
	.loc 1 230 0
	ldp	x19, x20, [sp,16]
	.cfi_remember_state
	.cfi_restore 20
	.cfi_restore 19
	ldp	x29, x30, [sp], 32
	.cfi_restore 30
	.cfi_restore 29
	.cfi_def_cfa 31, 0
	ret
.LVL18:
.L12:
	.cfi_restore_state
.LBB12:
.LBB13:
	.loc 1 220 0 discriminator 1
	adrp	x1, .LC0
	adrp	x4, .LC1
	add	x1, x1, :lo12:.LC0
	add	x2, x20, 1920
	mov	w3, 220
	add	x4, x4, :lo12:.LC1
	bl	dprint_linux_kernel
.LVL19:
	mov	w0, -1
	b	.L5
.LBE13:
.LBE12:
	.cfi_endproc
.LFE2130:
	.size	HEVCWriteCabacTab, .-HEVCWriteCabacTab
	.align	2
	.global	HEVCHAL_InitHal
	.type	HEVCHAL_InitHal, %function
HEVCHAL_InitHal:
.LFB2131:
	.loc 1 243 0
	.cfi_startproc
.LVL20:
	stp	x29, x30, [sp, -16]!
	.cfi_def_cfa_offset 16
	.cfi_offset 29, -16
	.cfi_offset 30, -8
	add	x29, sp, 0
	.cfi_def_cfa_register 29
	.loc 1 244 0
	ldr	w0, [x0,1104]
.LVL21:
	bl	HEVCWriteCabacTab
.LVL22:
	cbnz	w0, .L18
.L14:
	.loc 1 251 0
	ldp	x29, x30, [sp], 16
	.cfi_remember_state
	.cfi_restore 30
	.cfi_restore 29
	.cfi_def_cfa 31, 0
	ret
.L18:
	.cfi_restore_state
	.loc 1 246 0
	adrp	x1, .LC2
	mov	w0, 1
	add	x1, x1, :lo12:.LC2
	bl	dprint_linux_kernel
.LVL23:
	.loc 1 247 0
	mov	w0, -1
	b	.L14
	.cfi_endproc
.LFE2131:
	.size	HEVCHAL_InitHal, .-HEVCHAL_InitHal
	.align	2
	.global	HEVCGet_VirAddr
	.type	HEVCGet_VirAddr, %function
HEVCGet_VirAddr:
.LFB2132:
	.loc 1 263 0
	.cfi_startproc
.LVL24:
	.loc 1 265 0
	add	x0, x1, x0, uxtw 2
.LVL25:
	ret
	.cfi_endproc
.LFE2132:
	.size	HEVCGet_VirAddr, .-HEVCGet_VirAddr
	.align	2
	.global	HEVCGet_PhyAddr
	.type	HEVCGet_PhyAddr, %function
HEVCGet_PhyAddr:
.LFB2133:
	.loc 1 277 0
	.cfi_startproc
.LVL26:
	.loc 1 279 0
	add	w0, w1, w0, lsl 2
.LVL27:
	ret
	.cfi_endproc
.LFE2133:
	.size	HEVCGet_PhyAddr, .-HEVCGet_PhyAddr
	.align	2
	.global	HEVCHAL_CutSliceChain
	.type	HEVCHAL_CutSliceChain, %function
HEVCHAL_CutSliceChain:
.LFB2134:
	.loc 1 283 0
	.cfi_startproc
.LVL28:
	stp	x29, x30, [sp, -16]!
	.cfi_def_cfa_offset 16
	.cfi_offset 29, -16
	.cfi_offset 30, -8
	add	x29, sp, 0
	.cfi_def_cfa_register 29
	.loc 1 288 0
	bl	MEM_Phy2Vir
.LVL29:
	.loc 1 289 0
	cbz	x0, .L24
	.loc 1 294 0
	str	wzr, [x0,252]
	.loc 1 296 0
	mov	w0, 0
.LVL30:
.L23:
	.loc 1 297 0
	ldp	x29, x30, [sp], 16
	.cfi_remember_state
	.cfi_restore 30
	.cfi_restore 29
	.cfi_def_cfa 31, 0
	ret
.LVL31:
.L24:
	.cfi_restore_state
.LBB18:
.LBB19:
	.loc 1 289 0 discriminator 1
	adrp	x2, .LANCHOR0
	adrp	x1, .LC0
	add	x2, x2, :lo12:.LANCHOR0
	adrp	x4, .LC3
	add	x1, x1, :lo12:.LC0
	add	x2, x2, 1944
	mov	w3, 289
	add	x4, x4, :lo12:.LC3
	bl	dprint_linux_kernel
.LVL32:
	mov	w0, -1
	b	.L23
.LBE19:
.LBE18:
	.cfi_endproc
.LFE2134:
	.size	HEVCHAL_CutSliceChain, .-HEVCHAL_CutSliceChain
	.align	2
	.global	HEVC_WriteQmatrix
	.type	HEVC_WriteQmatrix, %function
HEVC_WriteQmatrix:
.LFB2135:
	.loc 1 301 0
	.cfi_startproc
.LVL33:
	stp	x29, x30, [sp, -80]!
	.cfi_def_cfa_offset 80
	.cfi_offset 29, -80
	.cfi_offset 30, -72
	add	x29, sp, 0
	.cfi_def_cfa_register 29
	stp	x19, x20, [sp,16]
	stp	x21, x22, [sp,32]
	stp	x23, x24, [sp,48]
	str	x25, [sp,64]
	.cfi_offset 19, -64
	.cfi_offset 20, -56
	.cfi_offset 21, -48
	.cfi_offset 22, -40
	.cfi_offset 23, -32
	.cfi_offset 24, -24
	.cfi_offset 25, -16
	.loc 1 304 0 discriminator 1
	cbz	w1, .L25
	sub	w23, w1, #1
	.loc 1 307 0
	adrp	x25, .LC4
	.loc 1 308 0
	adrp	x24, .LC5
	mov	x22, x3
	mov	w20, w2
	mov	x21, x0
	add	x23, x23, 1
	.loc 1 304 0 discriminator 1
	mov	x19, 0
	.loc 1 307 0
	add	x25, x25, :lo12:.LC4
	.loc 1 308 0
	add	x24, x24, :lo12:.LC5
.L27:
	.loc 1 306 0
	ldr	w0, [x21,x19,lsl 2]
	.loc 1 307 0
	mov	w2, w19
	.loc 1 306 0
	str	w0, [x22,x19,lsl 2]
	.loc 1 307 0
	mov	x1, x25
.LVL34:
	mov	w0, 4
	ldr	w3, [x21,x19,lsl 2]
	bl	dprint_linux_kernel
.LVL35:
	.loc 1 308 0
	ldr	w3, [x22,x19,lsl 2]
	mov	w2, w20
.LVL36:
	mov	w0, 4
	mov	x1, x24
	add	x19, x19, 1
	add	w20, w20, w0
	bl	dprint_linux_kernel
.LVL37:
	.loc 1 304 0 discriminator 1
	cmp	x19, x23
	bne	.L27
.LVL38:
.L25:
	.loc 1 312 0
	ldp	x19, x20, [sp,16]
	.cfi_restore 20
	.cfi_restore 19
	ldp	x21, x22, [sp,32]
	.cfi_restore 22
	.cfi_restore 21
	ldp	x23, x24, [sp,48]
	.cfi_restore 24
	.cfi_restore 23
	ldr	x25, [sp,64]
	.cfi_restore 25
	ldp	x29, x30, [sp], 80
	.cfi_restore 30
	.cfi_restore 29
	.cfi_def_cfa 31, 0
	ret
	.cfi_endproc
.LFE2135:
	.size	HEVC_WriteQmatrix, .-HEVC_WriteQmatrix
	.align	2
	.global	HEVC_WriteTileInfo
	.type	HEVC_WriteTileInfo, %function
HEVC_WriteTileInfo:
.LFB2136:
	.loc 1 316 0
	.cfi_startproc
.LVL39:
	stp	x29, x30, [sp, -96]!
	.cfi_def_cfa_offset 96
	.cfi_offset 29, -96
	.cfi_offset 30, -88
	add	x29, sp, 0
	.cfi_def_cfa_register 29
	stp	x23, x24, [sp,48]
	stp	x19, x20, [sp,16]
	stp	x21, x22, [sp,32]
	stp	x25, x26, [sp,64]
	str	x27, [sp,80]
	.cfi_offset 23, -48
	.cfi_offset 24, -40
	.cfi_offset 19, -80
	.cfi_offset 20, -72
	.cfi_offset 21, -64
	.cfi_offset 22, -56
	.cfi_offset 25, -32
	.cfi_offset 26, -24
	.cfi_offset 27, -16
	.loc 1 316 0
	mov	x24, x0
	.loc 1 321 0
	ldr	w0, [x1,1108]
.LVL40:
	bl	MEM_Phy2Vir
.LVL41:
	mov	x23, x0
	.loc 1 322 0
	cbz	x0, .L31
	.loc 1 342 0
	adrp	x22, .LC7
	add	x27, x0, 4
	add	x26, x24, 1660
	add	x25, x24, 2172
	add	x22, x22, :lo12:.LC7
.LVL42:
.L32:
	.loc 1 316 0
	mov	x20, x26
	mov	x21, x27
	mov	w19, 0
	b	.L36
.L48:
	.loc 1 331 0
	ldrb	w5, [x20,3]
	.loc 1 327 0 discriminator 2
	add	w19, w19, 4
	.loc 1 332 0
	ldrb	w2, [x20,2]
	add	x21, x21, 4
	.loc 1 334 0
	ldrb	w4, [x20]
	add	x20, x20, 4
	.loc 1 333 0
	ldrb	w3, [x20,-3]
	.loc 1 332 0
	lsl	w2, w2, 16
	orr	w2, w2, w5, lsl 24
	orr	w2, w2, w4
	.loc 1 334 0
	orr	w2, w2, w3, lsl 8
	.loc 1 336 0
	str	w2, [x21,-8]
	.loc 1 337 0
	bl	dprint_linux_kernel
.LVL43:
	.loc 1 327 0 discriminator 1
	cmp	w19, 512
	beq	.L47
.L36:
	.loc 1 329 0
	cmp	w19, 252
	.loc 1 337 0
	mov	x1, x22
	mov	w0, 4
	.loc 1 342 0
	mov	w2, 0
	.loc 1 329 0
	bls	.L48
	.loc 1 341 0
	str	wzr, [x21,-4]
	.loc 1 342 0
	mov	w0, 4
	mov	x1, x22
	.loc 1 327 0 discriminator 2
	add	w19, w19, 4
	add	x21, x21, 4
	add	x20, x20, 4
	.loc 1 342 0
	bl	dprint_linux_kernel
.LVL44:
	.loc 1 327 0 discriminator 1
	cmp	w19, 512
	bne	.L36
.L47:
	add	x26, x26, 256
	add	x27, x27, 512
	.loc 1 325 0 discriminator 1
	cmp	x26, x25
	bne	.L32
	add	x2, x23, 1028
	mov	w0, 0
.L39:
	.loc 1 350 0
	cmp	w0, 9
	.loc 1 358 0
	mov	w1, 0
	.loc 1 348 0 discriminator 2
	add	w0, w0, 1
	.loc 1 350 0
	bhi	.L38
	.loc 1 352 0
	ldr	w1, [x25,4]
	ldr	w3, [x25]
	orr	w1, w3, w1, lsl 16
.L38:
	str	w1, [x2,-4]
	.loc 1 348 0 discriminator 1
	cmp	w0, 20
	add	x2, x2, 4
	add	x25, x25, 8
	bne	.L39
	add	x23, x23, 1108
	add	x24, x24, 2252
.LVL45:
	mov	w2, 0
.L41:
	.loc 1 365 0
	cmp	w2, 10
	.loc 1 373 0
	mov	w19, 0
.LVL46:
	.loc 1 363 0 discriminator 2
	add	w2, w2, 1
	.loc 1 365 0
	bhi	.L40
	.loc 1 367 0
	ldr	w20, [x24,4]
	ldr	w19, [x24]
	orr	w19, w19, w20, lsl 16
.L40:
	str	w19, [x23,-4]
	.loc 1 363 0 discriminator 1
	cmp	w2, 22
	add	x23, x23, 4
	add	x24, x24, 8
	bne	.L41
	.loc 1 377 0
	mov	w0, 0
.LVL47:
.L33:
	.loc 1 378 0
	ldp	x19, x20, [sp,16]
	.cfi_remember_state
	.cfi_restore 20
	.cfi_restore 19
	ldp	x21, x22, [sp,32]
	.cfi_restore 22
	.cfi_restore 21
	ldp	x23, x24, [sp,48]
	.cfi_restore 24
	.cfi_restore 23
.LVL48:
	ldp	x25, x26, [sp,64]
	.cfi_restore 26
	.cfi_restore 25
	ldr	x27, [sp,80]
	.cfi_restore 27
	ldp	x29, x30, [sp], 96
	.cfi_restore 30
	.cfi_restore 29
	.cfi_def_cfa 31, 0
	ret
.LVL49:
.L31:
	.cfi_restore_state
	.loc 1 322 0 discriminator 1
	adrp	x2, .LANCHOR0
	adrp	x1, .LC0
	add	x2, x2, :lo12:.LANCHOR0
	adrp	x4, .LC6
	mov	w0, 0
	add	x1, x1, :lo12:.LC0
	add	x2, x2, 1968
	mov	w3, 322
	add	x4, x4, :lo12:.LC6
	bl	dprint_linux_kernel
.LVL50:
	mov	w0, -1
	.loc 1 322 0 is_stmt 0
	b	.L33
	.cfi_endproc
.LFE2136:
	.size	HEVC_WriteTileInfo, .-HEVC_WriteTileInfo
	.align	2
	.global	HEVCHAL_SetPicMsg
	.type	HEVCHAL_SetPicMsg, %function
HEVCHAL_SetPicMsg:
.LFB2137:
	.loc 1 383 0 is_stmt 1
	.cfi_startproc
.LVL51:
	stp	x29, x30, [sp, -80]!
	.cfi_def_cfa_offset 80
	.cfi_offset 29, -80
	.cfi_offset 30, -72
	add	x29, sp, 0
	.cfi_def_cfa_register 29
	stp	x19, x20, [sp,16]
	.cfi_offset 19, -64
	.cfi_offset 20, -56
	mov	x19, x0
	.loc 1 393 0
	mov	w0, w2
.LVL52:
	.loc 1 383 0
	stp	x25, x26, [sp,64]
	stp	x21, x22, [sp,32]
	stp	x23, x24, [sp,48]
	.cfi_offset 25, -16
	.cfi_offset 26, -8
	.cfi_offset 21, -48
	.cfi_offset 22, -40
	.cfi_offset 23, -32
	.cfi_offset 24, -24
	.loc 1 383 0
	mov	x26, x1
	mov	w23, w2
	mov	w25, w3
	.loc 1 393 0
	bl	MEM_Phy2Vir
.LVL53:
	mov	x21, x0
	.loc 1 394 0
	cbz	x0, .L106
	.loc 1 401 0
	adrp	x1, .LC9
	mov	w0, 4
	add	x1, x1, :lo12:.LC9
	bl	dprint_linux_kernel
.LVL54:
	.loc 1 406 0
	ldrb	w2, [x19,1]
	.loc 1 416 0
	mov	w0, 4
	.loc 1 405 0
	ldrb	w1, [x19]
	.loc 1 410 0
	ldr	w4, [x19,8]
	.loc 1 407 0
	ldrb	w3, [x19,2]
	.loc 1 405 0
	lsl	w1, w1, 25
	.loc 1 412 0
	ldr	w6, [x19,16]
	.loc 1 405 0
	orr	w1, w1, w2, lsl 24
	.loc 1 408 0
	ldrb	w5, [x19,3]
	.loc 1 412 0
	lsl	w6, w6, 9
	ldr	w2, [x19,20]
	orr	w6, w6, w4, lsl 19
	.loc 1 406 0
	orr	w1, w1, w3, lsl 23
	.loc 1 411 0
	ldrb	w4, [x19,12]
	orr	w2, w6, w2
	.loc 1 409 0
	ldrb	w3, [x19,4]
	.loc 1 407 0
	orr	w5, w1, w5, lsl 22
	.loc 1 416 0
	adrp	x1, .LC10
	orr	w4, w2, w4, lsl 18
	add	x1, x1, :lo12:.LC10
	.loc 1 408 0
	orr	w3, w5, w3, lsl 21
	.loc 1 416 0
	mov	w2, w23
	.loc 1 405 0
	orr	w3, w4, w3
	.loc 1 415 0
	str	w3, [x21]
	.loc 1 416 0
	ldr	w3, [x21]
	bl	dprint_linux_kernel
.LVL55:
	.loc 1 419 0
	ldr	w0, [x19,24]
	.loc 1 420 0
	str	w0, [x21,4]
	.loc 1 423 0
	ldr	w3, [x19,28]
	.loc 1 426 0
	ldr	w0, [x19,36]
	ldr	w2, [x19,68]
	.loc 1 427 0
	ldr	w1, [x19,40]
	.loc 1 426 0
	lsl	w0, w0, 24
	.loc 1 428 0
	ldr	w4, [x19,44]
	orr	w0, w0, w3, lsl 29
	orr	w0, w0, w2
	.loc 1 429 0
	ldr	w3, [x19,48]
	.loc 1 430 0
	ldr	w2, [x19,52]
	orr	w0, w0, w1, lsl 21
	orr	w0, w0, w4, lsl 18
	.loc 1 431 0
	ldr	w1, [x19,56]
	.loc 1 432 0
	ldr	w4, [x19,60]
	orr	w0, w0, w3, lsl 15
	orr	w0, w0, w2, lsl 12
	.loc 1 433 0
	ldr	w3, [x19,64]
	.loc 1 424 0
	ldrb	w2, [x19,32]
	orr	w0, w0, w1, lsl 9
	orr	w0, w0, w4, lsl 6
	.loc 1 425 0
	ldrb	w1, [x19,33]
	orr	w0, w0, w3, lsl 3
	orr	w0, w0, w2, lsl 28
	.loc 1 423 0
	orr	w0, w0, w1, lsl 27
	.loc 1 436 0
	str	w0, [x21,8]
	.loc 1 439 0
	ldr	w1, [x19,72]
	.loc 1 440 0
	ldr	w0, [x19,76]
	ldr	w4, [x19,92]
	.loc 1 441 0
	ldr	w3, [x19,80]
	.loc 1 440 0
	lsl	w0, w0, 16
	.loc 1 442 0
	ldr	w2, [x19,84]
	.loc 1 439 0
	orr	w0, w0, w1, lsl 22
	orr	w0, w0, w4
	.loc 1 443 0
	ldr	w1, [x19,88]
	orr	w0, w0, w3, lsl 12
	orr	w0, w0, w2, lsl 8
	.loc 1 439 0
	orr	w0, w0, w1, lsl 4
	.loc 1 446 0
	str	w0, [x21,12]
	.loc 1 450 0
	ldr	w0, [x26,1088]
	str	w0, [x21,16]
	.loc 1 454 0
	ldr	w0, [x26,1092]
	str	w0, [x21,20]
	.loc 1 457 0
	ldr	w0, [x19,1284]
	add	x0, x19, x0, lsl 2
	.loc 1 458 0
	ldr	w0, [x0,1444]
	str	w0, [x21,24]
	.loc 1 462 0
	ldr	w0, [x26,1100]
	str	w0, [x21,28]
	.loc 1 466 0 discriminator 1
	ldr	w0, [x19,2404]
	cbz	w0, .L52
	.loc 1 468 0
	ldr	w0, [x19,2340]
	add	x0, x0, 328
	.loc 1 469 0
	ldr	w0, [x19,x0,lsl 2]
	str	w0, [x21,32]
	.loc 1 466 0 discriminator 1
	ldr	w0, [x19,2404]
	cmp	w0, 1
	bls	.L54
	.loc 1 468 0
	ldr	w0, [x19,2344]
	add	x0, x0, 328
	.loc 1 469 0
	ldr	w0, [x19,x0,lsl 2]
	str	w0, [x21,36]
	.loc 1 466 0 discriminator 1
	ldr	w0, [x19,2404]
	cmp	w0, 2
	bls	.L54
	.loc 1 468 0
	ldr	w0, [x19,2348]
	add	x0, x0, 328
	.loc 1 469 0
	ldr	w0, [x19,x0,lsl 2]
	str	w0, [x21,40]
	.loc 1 466 0 discriminator 1
	ldr	w0, [x19,2404]
	cmp	w0, 3
	bls	.L54
	.loc 1 468 0
	ldr	w0, [x19,2352]
	add	x0, x0, 328
	.loc 1 469 0
	ldr	w0, [x19,x0,lsl 2]
	str	w0, [x21,44]
	.loc 1 466 0 discriminator 1
	ldr	w0, [x19,2404]
	cmp	w0, 4
	bls	.L54
	.loc 1 468 0
	ldr	w0, [x19,2356]
	add	x0, x0, 328
	.loc 1 469 0
	ldr	w0, [x19,x0,lsl 2]
	str	w0, [x21,48]
	.loc 1 466 0 discriminator 1
	ldr	w0, [x19,2404]
	cmp	w0, 5
	bls	.L54
	.loc 1 468 0
	ldr	w0, [x19,2360]
	add	x0, x0, 328
	.loc 1 469 0
	ldr	w0, [x19,x0,lsl 2]
	str	w0, [x21,52]
	.loc 1 466 0 discriminator 1
	ldr	w0, [x19,2404]
	cmp	w0, 6
	bls	.L54
	.loc 1 468 0
	ldr	w0, [x19,2364]
	add	x0, x0, 328
	.loc 1 469 0
	ldr	w0, [x19,x0,lsl 2]
	str	w0, [x21,56]
	.loc 1 466 0 discriminator 1
	ldr	w0, [x19,2404]
	cmp	w0, 7
	bls	.L54
	.loc 1 468 0
	ldr	w0, [x19,2368]
	add	x0, x0, 328
	.loc 1 469 0
	ldr	w0, [x19,x0,lsl 2]
	str	w0, [x21,60]
	.loc 1 466 0 discriminator 1
	ldr	w0, [x19,2404]
	cmp	w0, 8
	bls	.L54
	.loc 1 468 0
	ldr	w0, [x19,2372]
	add	x0, x0, 328
	.loc 1 469 0
	ldr	w0, [x19,x0,lsl 2]
	str	w0, [x21,64]
	.loc 1 466 0 discriminator 1
	ldr	w0, [x19,2404]
	cmp	w0, 9
	bls	.L54
	.loc 1 468 0
	ldr	w0, [x19,2376]
	add	x0, x0, 328
	.loc 1 469 0
	ldr	w0, [x19,x0,lsl 2]
	str	w0, [x21,68]
	.loc 1 466 0 discriminator 1
	ldr	w0, [x19,2404]
	cmp	w0, 10
	bls	.L54
	.loc 1 468 0
	ldr	w0, [x19,2380]
	add	x0, x0, 328
	.loc 1 469 0
	ldr	w0, [x19,x0,lsl 2]
	str	w0, [x21,72]
	.loc 1 466 0 discriminator 1
	ldr	w0, [x19,2404]
	cmp	w0, 11
	bls	.L54
	.loc 1 468 0
	ldr	w0, [x19,2384]
	add	x0, x0, 328
	.loc 1 469 0
	ldr	w0, [x19,x0,lsl 2]
	str	w0, [x21,76]
	.loc 1 466 0 discriminator 1
	ldr	w0, [x19,2404]
	cmp	w0, 12
	bls	.L54
	.loc 1 468 0
	ldr	w0, [x19,2388]
	add	x0, x0, 328
	.loc 1 469 0
	ldr	w0, [x19,x0,lsl 2]
	str	w0, [x21,80]
	.loc 1 466 0 discriminator 1
	ldr	w0, [x19,2404]
	cmp	w0, 13
	bls	.L54
	.loc 1 468 0
	ldr	w0, [x19,2392]
	add	x0, x0, 328
	.loc 1 469 0
	ldr	w0, [x19,x0,lsl 2]
	str	w0, [x21,84]
	.loc 1 466 0 discriminator 1
	ldr	w0, [x19,2404]
	cmp	w0, 14
	bls	.L54
	.loc 1 468 0
	ldr	w0, [x19,2396]
	add	x0, x0, 328
	.loc 1 469 0
	ldr	w0, [x19,x0,lsl 2]
	str	w0, [x21,88]
	.loc 1 466 0 discriminator 1
	ldr	w0, [x19,2404]
	cmp	w0, 15
	bls	.L54
	.loc 1 468 0
	ldr	w0, [x19,2400]
	add	x0, x0, 328
	.loc 1 469 0
	ldr	w0, [x19,x0,lsl 2]
	str	w0, [x21,92]
	.loc 1 466 0 discriminator 1
	ldr	w0, [x19,2404]
	.loc 1 472 0 discriminator 1
	cmp	w0, 15
	bls	.L54
.L57:
	.loc 1 480 0
	ldr	w1, [x26,1104]
	.loc 1 500 0
	mov	x0, x19
	.loc 1 480 0
	str	w1, [x21,100]
	.loc 1 500 0
	mov	x1, x26
	.loc 1 486 0
	ldr	w2, [x19,120]
	str	w2, [x21,104]
	ldr	w2, [x19,124]
	str	w2, [x21,108]
	ldr	w2, [x19,128]
	str	w2, [x21,112]
	ldr	w2, [x19,132]
	str	w2, [x21,116]
	ldr	w2, [x19,136]
	str	w2, [x21,120]
	ldr	w2, [x19,140]
	str	w2, [x21,124]
	ldr	w2, [x19,144]
	str	w2, [x21,128]
	ldr	w2, [x19,148]
	str	w2, [x21,132]
	ldr	w2, [x19,152]
	str	w2, [x21,136]
	ldr	w2, [x19,156]
	str	w2, [x21,140]
	ldr	w2, [x19,160]
	str	w2, [x21,144]
	ldr	w2, [x19,164]
	str	w2, [x21,148]
	ldr	w2, [x19,168]
	str	w2, [x21,152]
	ldr	w2, [x19,172]
	str	w2, [x21,156]
	ldr	w2, [x19,176]
	str	w2, [x21,160]
	ldr	w2, [x19,180]
	str	w2, [x21,164]
	.loc 1 491 0
	ldr	w2, [x26,1096]
	str	w2, [x21,172]
	.loc 1 494 0
	ldr	w2, [x19,184]
	ldr	w3, [x19,188]
	orr	w2, w3, w2, lsl 16
	.loc 1 497 0
	str	w2, [x21,216]
	.loc 1 500 0
	bl	HEVC_WriteTileInfo
.LVL56:
	mov	w24, w0
	cbnz	w0, .L107
	.loc 1 507 0
	ldr	w0, [x26,1108]
	.loc 1 554 0
	mov	x1, x21
	.loc 1 507 0
	str	w0, [x21,220]
	.loc 1 554 0
	mov	w0, 64
	.loc 1 558 0
	add	x22, x19, 252
	mov	x20, 0
	.loc 1 511 0
	ldr	w2, [x26,1120]
	str	w2, [x21,224]
	.loc 1 515 0
	ldr	w2, [x26,1112]
	str	w2, [x21,228]
	.loc 1 519 0
	ldr	w2, [x26,1124]
	str	w2, [x21,232]
	.loc 1 523 0
	ldr	w2, [x26,1116]
	str	w2, [x21,236]
	.loc 1 533 0
	ldr	w6, [x19,224]
	.loc 1 532 0
	ldr	w4, [x19,220]
	.loc 1 538 0
	ldr	w2, [x19,236]
	.loc 1 526 0
	ldrb	w7, [x19,212]
	.loc 1 532 0
	lsl	w4, w4, 16
	.loc 1 527 0
	ldrb	w3, [x19,213]
	orr	w4, w4, w6, lsl 13
	.loc 1 538 0
	and	w2, w2, 31
	.loc 1 528 0
	ldrb	w6, [x19,214]
	orr	w2, w4, w2
	.loc 1 529 0
	ldrb	w5, [x19,215]
	orr	w2, w2, w7, lsl 24
	.loc 1 530 0
	ldrb	w4, [x19,216]
	orr	w2, w2, w3, lsl 23
	.loc 1 531 0
	ldrb	w3, [x19,217]
	orr	w2, w2, w6, lsl 22
	.loc 1 534 0
	ldrb	w6, [x19,228]
	orr	w2, w2, w5, lsl 21
	.loc 1 535 0
	ldrb	w5, [x19,229]
	orr	w2, w2, w4, lsl 20
	.loc 1 536 0
	ldrb	w4, [x19,230]
	orr	w2, w2, w3, lsl 19
	.loc 1 537 0
	ldr	w3, [x19,232]
	orr	w2, w2, w6, lsl 12
	orr	w2, w2, w5, lsl 11
	ubfiz	w3, w3, 5, 5
	orr	w2, w2, w4, lsl 10
	orr	w2, w2, w3
	.loc 1 540 0
	str	w2, [x21,240]
	.loc 1 543 0
	ldr	w2, [x19,240]
	ldr	w3, [x19,244]
	orr	w2, w3, w2, lsl 16
	.loc 1 546 0
	str	w2, [x21,244]
	.loc 1 550 0
	str	w25, [x21,252]
.LBB22:
.LBB23:
	.loc 1 307 0
	adrp	x25, .LC4
.LVL57:
	add	x25, x25, :lo12:.LC4
.LBE23:
.LBE22:
	.loc 1 554 0
	bl	HEVC_GetVirAddr
.LVL58:
	mov	x21, x0
	.loc 1 555 0
	mov	w1, w23
	mov	w0, 64
.LBB27:
.LBB24:
	.loc 1 308 0
	adrp	x23, .LC5
.LVL59:
.LBE24:
.LBE27:
	.loc 1 555 0
	bl	HEVC_GetPhyAddr
.LVL60:
.LBB28:
.LBB25:
	.loc 1 308 0
	add	x23, x23, :lo12:.LC5
.LBE25:
.LBE28:
	.loc 1 558 0
	mov	w19, w0
.LVL61:
.L58:
.LBB29:
.LBB26:
	.loc 1 306 0
	ldr	w0, [x22,x20,lsl 2]
	.loc 1 307 0
	mov	w2, w20
	.loc 1 306 0
	str	w0, [x21,x20,lsl 2]
	.loc 1 307 0
	mov	x1, x25
	mov	w0, 4
	ldr	w3, [x22,x20,lsl 2]
	bl	dprint_linux_kernel
.LVL62:
	.loc 1 308 0
	ldr	w3, [x21,x20,lsl 2]
	mov	w2, w19
	mov	w0, 4
	mov	x1, x23
	add	x20, x20, 1
	add	w19, w19, w0
	bl	dprint_linux_kernel
.LVL63:
	.loc 1 304 0 discriminator 1
	cmp	x20, 256
	bne	.L58
.LVL64:
.L103:
.LBE26:
.LBE29:
	.loc 1 561 0
	mov	w0, w24
	ldp	x19, x20, [sp,16]
	.cfi_remember_state
	.cfi_restore 20
	.cfi_restore 19
.LVL65:
	ldp	x21, x22, [sp,32]
	.cfi_restore 22
	.cfi_restore 21
	ldp	x23, x24, [sp,48]
	.cfi_restore 24
	.cfi_restore 23
.LVL66:
	ldp	x25, x26, [sp,64]
	.cfi_restore 26
	.cfi_restore 25
.LVL67:
	ldp	x29, x30, [sp], 80
	.cfi_restore 30
	.cfi_restore 29
	.cfi_def_cfa 31, 0
	ret
.LVL68:
.L54:
	.cfi_restore_state
	.loc 1 474 0
	ldr	w3, [x19,2340]
	.loc 1 475 0
	add	w2, w0, 8
	.loc 1 472 0 discriminator 3
	add	w1, w0, 1
	.loc 1 474 0
	add	x3, x3, 328
	.loc 1 472 0 discriminator 1
	cmp	w1, 16
	.loc 1 475 0
	ldr	w3, [x19,x3,lsl 2]
	str	w3, [x21,w2,uxtw 2]
	.loc 1 472 0 discriminator 1
	beq	.L57
	.loc 1 474 0
	ldr	w2, [x19,2340]
	.loc 1 475 0
	add	w0, w0, 9
	.loc 1 472 0 discriminator 3
	add	w1, w1, 1
	.loc 1 474 0
	add	x2, x2, 328
	.loc 1 472 0 discriminator 1
	cmp	w1, 16
	.loc 1 475 0
	ldr	w2, [x19,x2,lsl 2]
	str	w2, [x21,w0,uxtw 2]
	.loc 1 472 0 discriminator 1
	beq	.L57
.L59:
	.loc 1 474 0
	ldr	w0, [x19,2340]
	.loc 1 475 0
	add	w7, w1, 8
	.loc 1 472 0 discriminator 1
	cmp	w1, 15
	.loc 1 474 0
	add	x0, x0, 328
	.loc 1 475 0
	ldr	w0, [x19,x0,lsl 2]
	str	w0, [x21,w7,uxtw 2]
	.loc 1 472 0 discriminator 1
	beq	.L57
	.loc 1 474 0
	ldr	w0, [x19,2340]
	.loc 1 475 0
	add	w6, w1, 9
	.loc 1 472 0 discriminator 1
	cmp	w1, 14
	.loc 1 474 0
	add	x0, x0, 328
	.loc 1 475 0
	ldr	w0, [x19,x0,lsl 2]
	str	w0, [x21,w6,uxtw 2]
	.loc 1 472 0 discriminator 1
	beq	.L57
	.loc 1 474 0
	ldr	w0, [x19,2340]
	.loc 1 475 0
	add	w5, w1, 10
	.loc 1 472 0 discriminator 1
	cmp	w1, 13
	.loc 1 474 0
	add	x0, x0, 328
	.loc 1 475 0
	ldr	w0, [x19,x0,lsl 2]
	str	w0, [x21,w5,uxtw 2]
	.loc 1 472 0 discriminator 1
	beq	.L57
	.loc 1 474 0
	ldr	w0, [x19,2340]
	.loc 1 475 0
	add	w4, w1, 11
	.loc 1 472 0 discriminator 1
	cmp	w1, 12
	.loc 1 474 0
	add	x0, x0, 328
	.loc 1 475 0
	ldr	w0, [x19,x0,lsl 2]
	str	w0, [x21,w4,uxtw 2]
	.loc 1 472 0 discriminator 1
	beq	.L57
	.loc 1 474 0
	ldr	w0, [x19,2340]
	.loc 1 475 0
	add	w3, w1, 12
	.loc 1 472 0 discriminator 1
	cmp	w1, 11
	.loc 1 474 0
	add	x0, x0, 328
	.loc 1 475 0
	ldr	w0, [x19,x0,lsl 2]
	str	w0, [x21,w3,uxtw 2]
	.loc 1 472 0 discriminator 1
	beq	.L57
	.loc 1 474 0
	ldr	w2, [x19,2340]
	.loc 1 475 0
	add	w0, w1, 13
	.loc 1 472 0 discriminator 1
	cmp	w1, 10
	.loc 1 474 0
	add	x2, x2, 328
	.loc 1 475 0
	ldr	w2, [x19,x2,lsl 2]
	str	w2, [x21,w0,uxtw 2]
	.loc 1 472 0 discriminator 1
	beq	.L57
	.loc 1 474 0
	ldr	w2, [x19,2340]
	.loc 1 475 0
	add	w0, w1, 14
	.loc 1 472 0 discriminator 1
	cmp	w1, 9
	.loc 1 474 0
	add	x2, x2, 328
	.loc 1 475 0
	ldr	w2, [x19,x2,lsl 2]
	str	w2, [x21,w0,uxtw 2]
	.loc 1 472 0 discriminator 1
	beq	.L57
	.loc 1 474 0
	ldr	w2, [x19,2340]
	.loc 1 475 0
	add	w0, w1, 15
	.loc 1 472 0 discriminator 1
	cmp	w7, 16
	.loc 1 474 0
	add	x2, x2, 328
	.loc 1 475 0
	ldr	w2, [x19,x2,lsl 2]
	str	w2, [x21,w0,uxtw 2]
	.loc 1 472 0 discriminator 1
	beq	.L57
	.loc 1 474 0
	ldr	w2, [x19,2340]
	.loc 1 475 0
	add	w0, w1, 16
	.loc 1 472 0 discriminator 1
	cmp	w6, 16
	.loc 1 474 0
	add	x2, x2, 328
	.loc 1 475 0
	ldr	w2, [x19,x2,lsl 2]
	str	w2, [x21,w0,uxtw 2]
	.loc 1 472 0 discriminator 1
	beq	.L57
	.loc 1 474 0
	ldr	w2, [x19,2340]
	.loc 1 475 0
	add	w0, w1, 17
	.loc 1 472 0 discriminator 1
	cmp	w5, 16
	.loc 1 474 0
	add	x2, x2, 328
	.loc 1 475 0
	ldr	w2, [x19,x2,lsl 2]
	str	w2, [x21,w0,uxtw 2]
	.loc 1 472 0 discriminator 1
	beq	.L57
	.loc 1 474 0
	ldr	w2, [x19,2340]
	.loc 1 475 0
	add	w0, w1, 18
	.loc 1 472 0 discriminator 1
	cmp	w4, 16
	.loc 1 474 0
	add	x2, x2, 328
	.loc 1 475 0
	ldr	w2, [x19,x2,lsl 2]
	str	w2, [x21,w0,uxtw 2]
	.loc 1 472 0 discriminator 1
	beq	.L57
	.loc 1 474 0
	ldr	w2, [x19,2340]
	.loc 1 475 0
	add	w0, w1, 19
	.loc 1 472 0 discriminator 1
	cmp	w3, 16
	.loc 1 474 0
	add	x2, x2, 328
	.loc 1 475 0
	ldr	w2, [x19,x2,lsl 2]
	str	w2, [x21,w0,uxtw 2]
	.loc 1 472 0 discriminator 1
	beq	.L57
	.loc 1 474 0
	ldr	w0, [x19,2340]
	.loc 1 475 0
	add	w2, w1, 20
	.loc 1 472 0 discriminator 1
	cmp	w1, 2
	.loc 1 474 0
	add	x0, x0, 328
	.loc 1 475 0
	ldr	w0, [x19,x0,lsl 2]
	str	w0, [x21,w2,uxtw 2]
	.loc 1 472 0 discriminator 1
	bne	.L57
	.loc 1 474 0
	ldr	w0, [x19,2340]
	add	x0, x0, 328
	.loc 1 475 0
	ldr	w0, [x19,x0,lsl 2]
	str	w0, [x21,92]
	b	.L57
.L52:
	.loc 1 474 0
	ldr	w0, [x19,2340]
	.loc 1 472 0 discriminator 3
	mov	w1, 2
	.loc 1 474 0
	add	x0, x0, 328
	.loc 1 475 0
	ldr	w0, [x19,x0,lsl 2]
	str	w0, [x21,32]
	.loc 1 474 0
	ldr	w0, [x19,2340]
	add	x0, x0, 328
	.loc 1 475 0
	ldr	w0, [x19,x0,lsl 2]
	str	w0, [x21,36]
	b	.L59
.L107:
	.loc 1 502 0
	adrp	x1, .LC11
	mov	w0, 1
	add	x1, x1, :lo12:.LC11
	.loc 1 503 0
	mov	w24, -1
	.loc 1 502 0
	bl	dprint_linux_kernel
.LVL69:
	.loc 1 503 0
	b	.L103
.L106:
	.loc 1 394 0 discriminator 1
	adrp	x2, .LANCHOR0
	adrp	x1, .LC0
	add	x2, x2, :lo12:.LANCHOR0
	adrp	x4, .LC8
	add	x1, x1, :lo12:.LC0
	add	x2, x2, 1992
	mov	w3, 394
	add	x4, x4, :lo12:.LC8
	mov	w0, 0
	mov	w24, -1
	bl	dprint_linux_kernel
.LVL70:
	.loc 1 394 0 is_stmt 0
	b	.L103
	.cfi_endproc
.LFE2137:
	.size	HEVCHAL_SetPicMsg, .-HEVCHAL_SetPicMsg
	.align	2
	.global	HEVCHAL_SetSliceMsg
	.type	HEVCHAL_SetSliceMsg, %function
HEVCHAL_SetSliceMsg:
.LFB2138:
	.loc 1 565 0 is_stmt 1
	.cfi_startproc
.LVL71:
	stp	x29, x30, [sp, -112]!
	.cfi_def_cfa_offset 112
	.cfi_offset 29, -112
	.cfi_offset 30, -104
	add	x29, sp, 0
	.cfi_def_cfa_register 29
	stp	x19, x20, [sp,16]
	.cfi_offset 19, -96
	.cfi_offset 20, -88
	mov	x20, x0
	.loc 1 576 0
	mov	w0, w3
.LVL72:
	.loc 1 565 0
	stp	x21, x22, [sp,32]
	stp	x23, x24, [sp,48]
	stp	x27, x28, [sp,80]
	stp	x25, x26, [sp,64]
	.cfi_offset 21, -80
	.cfi_offset 22, -72
	.cfi_offset 23, -64
	.cfi_offset 24, -56
	.cfi_offset 27, -32
	.cfi_offset 28, -24
	.cfi_offset 25, -48
	.cfi_offset 26, -40
	.loc 1 565 0
	mov	w24, w3
	mov	x19, x2
	str	w5, [x29,104]
	mov	w27, w6
	str	w7, [x29,108]
	.loc 1 576 0
	bl	MEM_Phy2Vir
.LVL73:
	mov	x22, x0
.LVL74:
	.loc 1 577 0
	cbz	x0, .L239
	.loc 1 581 0
	mov	w1, 0
	mov	x2, 1280
	mov	x23, x0
	.loc 1 603 0
	adrp	x26, .LC14
	.loc 1 581 0
	bl	memset
.LVL75:
	add	w25, w24, 4
	.loc 1 590 0 discriminator 1
	ldr	w0, [x19]
	.loc 1 581 0
	mov	w28, w24
	mov	x21, x19
	mov	w24, 0
.LVL76:
	.loc 1 588 0
	mov	w5, 0
	.loc 1 603 0
	add	x26, x26, :lo12:.LC14
	.loc 1 590 0 discriminator 1
	cbz	w0, .L240
.L112:
	.loc 1 599 0
	ldr	w6, [x21,16]
	.loc 1 603 0
	mov	x1, x26
	.loc 1 598 0
	ldr	w4, [x20,1300]
	.loc 1 603 0
	mov	w2, w24
	.loc 1 599 0
	and	w6, w6, -16
.LVL77:
	.loc 1 603 0
	mov	w3, w28
	.loc 1 598 0
	and	w4, w4, -16
.LVL78:
	.loc 1 603 0
	mov	w0, 4
	.loc 1 601 0
	sub	w4, w6, w4
.LVL79:
	.loc 1 602 0
	str	w4, [x23]
	str	x5, [x29,96]
	.loc 1 603 0
	ldr	w4, [x23]
	bl	dprint_linux_kernel
.LVL80:
	.loc 1 605 0
	ldr	w0, [x21,16]
	.loc 1 607 0
	mov	x1, x26
	.loc 1 605 0
	ldr	w4, [x21,8]
	.loc 1 607 0
	add	w2, w24, 1
	mov	w3, w25
	.loc 1 605 0
	add	w4, w4, w0, lsl 3
	.loc 1 607 0
	mov	w0, 4
	.loc 1 605 0
	and	w4, w4, 127
	.loc 1 606 0
	str	w4, [x23,4]
	.loc 1 607 0
	ldr	w4, [x23,4]
	bl	dprint_linux_kernel
.LVL81:
	.loc 1 610 0
	ldr	w0, [x21]
	.loc 1 611 0
	mov	x1, x26
	.loc 1 610 0
	str	w0, [x23,8]
	.loc 1 611 0
	add	w2, w24, 2
	add	w3, w25, 4
	mov	w0, 4
	ldr	w4, [x23,8]
	bl	dprint_linux_kernel
.LVL82:
	ldr	x5, [x29,96]
.L114:
	add	x23, x23, 12
	add	w24, w24, 3
	add	w25, w25, 12
	add	x21, x21, 4
	add	w28, w28, 12
	.loc 1 588 0 discriminator 1
	cbz	w5, .L140
	.loc 1 631 0
	ldrb	w1, [x19,25]
	.loc 1 630 0
	ldrb	w3, [x19,24]
	.loc 1 632 0
	ldr	w0, [x19,28]
	.loc 1 633 0
	ldrb	w2, [x19,32]
	.loc 1 630 0
	lsl	w3, w3, 27
	orr	w3, w3, w1, lsl 26
	.loc 1 632 0
	ubfiz	w0, w0, 19, 6
	.loc 1 630 0
	ldr	w1, [x19,36]
	.loc 1 631 0
	orr	w0, w3, w0
	.loc 1 632 0
	orr	w0, w0, w2, lsl 18
	.loc 1 630 0
	orr	w0, w0, w1
	.loc 1 635 0
	str	w0, [x22,24]
	.loc 1 641 0
	ldr	w5, [x19,56]
	.loc 1 640 0
	ldr	w1, [x19,44]
	.loc 1 642 0
	ldr	w4, [x19,60]
	.loc 1 645 0
	ldr	w0, [x19,72]
	.loc 1 640 0
	lsl	w1, w1, 24
	orr	w1, w1, w5, lsl 20
	.loc 1 647 0
	ldr	w2, [x19,76]
	orr	w1, w1, w4, lsl 16
	.loc 1 646 0
	ldr	w5, [x19,68]
	orr	w1, w1, w0, lsl 8
	adrp	x0, .LANCHOR0
	add	x0, x0, :lo12:.LANCHOR0
	.loc 1 643 0
	ldrb	w4, [x19,64]
	add	x0, x0, 2040
	orr	w1, w1, w5, lsl 2
	ldr	w3, [x0,x2,lsl 2]
	.loc 1 644 0
	ldrb	w2, [x19,65]
	.loc 1 639 0
	ldrb	w0, [x19,52]
	orr	w1, w1, w3
	.loc 1 638 0
	ldr	w3, [x19,40]
	orr	w1, w1, w4, lsl 15
	orr	w1, w1, w2, lsl 14
	lsl	w3, w3, 28
	orr	w0, w3, w0, lsl 27
	orr	w0, w1, w0
	.loc 1 648 0
	str	w0, [x22,28]
	.loc 1 652 0
	str	w27, [x22,32]
	.loc 1 655 0
	ldr	w0, [x20,20]
	add	w0, w0, 1
	.loc 1 656 0
	udiv	w1, w27, w0
.LVL83:
	.loc 1 655 0
	msub	w0, w1, w0, w27
.LVL84:
	.loc 1 658 0
	orr	w0, w0, w1, lsl 16
.LVL85:
	.loc 1 660 0
	str	w0, [x22,36]
	.loc 1 664 0
	ldr	w0, [x29,108]
.LVL86:
	str	w0, [x22,40]
	.loc 1 667 0
	ldr	w1, [x19,96]
.LVL87:
	.loc 1 668 0
	ldr	w0, [x19,100]
.LVL88:
	.loc 1 667 0
	ubfiz	w1, w1, 8, 5
	.loc 1 668 0
	and	w0, w0, 31
	.loc 1 667 0
	orr	w0, w1, w0
	.loc 1 669 0
	str	w0, [x22,44]
	.loc 1 672 0
	ldr	w1, [x19,104]
	.loc 1 673 0
	ldr	w0, [x19,108]
	.loc 1 676 0
	ldrb	w4, [x19,115]
	.loc 1 672 0
	ubfiz	w1, w1, 16, 4
	.loc 1 674 0
	ldrb	w3, [x19,113]
	.loc 1 673 0
	ubfiz	w0, w0, 8, 4
	.loc 1 675 0
	ldrb	w2, [x19,112]
	.loc 1 672 0
	orr	w0, w1, w0
	orr	w0, w0, w4
	.loc 1 676 0
	ldrb	w1, [x19,114]
	orr	w0, w0, w3, lsl 3
	orr	w0, w0, w2, lsl 2
	orr	w0, w0, w1, lsl 1
	.loc 1 678 0
	str	w0, [x22,48]
	.loc 1 683 0 discriminator 1
	ldr	w1, [x19,68]
	cbz	w1, .L141
	cmp	w1, 1
	.loc 1 685 0
	ldr	w0, [x19,116]
	.loc 1 683 0 discriminator 1
	bls	.L116
	.loc 1 685 0
	ldr	w2, [x19,120]
	.loc 1 683 0 discriminator 1
	cmp	w1, 2
	.loc 1 685 0
	orr	w0, w0, w2, lsl 1
	.loc 1 683 0 discriminator 1
	beq	.L116
	.loc 1 685 0
	ldr	w2, [x19,124]
	.loc 1 683 0 discriminator 1
	cmp	w1, 3
	.loc 1 685 0
	orr	w0, w0, w2, lsl 2
	.loc 1 683 0 discriminator 1
	beq	.L116
	.loc 1 685 0
	ldr	w2, [x19,128]
	.loc 1 683 0 discriminator 1
	cmp	w1, 4
	.loc 1 685 0
	orr	w0, w0, w2, lsl 3
	.loc 1 683 0 discriminator 1
	beq	.L116
	.loc 1 685 0
	ldr	w2, [x19,132]
	.loc 1 683 0 discriminator 1
	cmp	w1, 5
	.loc 1 685 0
	orr	w0, w0, w2, lsl 4
	.loc 1 683 0 discriminator 1
	beq	.L116
	.loc 1 685 0
	ldr	w2, [x19,136]
	.loc 1 683 0 discriminator 1
	cmp	w1, 6
	.loc 1 685 0
	orr	w0, w0, w2, lsl 5
	.loc 1 683 0 discriminator 1
	beq	.L116
	.loc 1 685 0
	ldr	w2, [x19,140]
	.loc 1 683 0 discriminator 1
	cmp	w1, 7
	.loc 1 685 0
	orr	w0, w0, w2, lsl 6
	.loc 1 683 0 discriminator 1
	beq	.L116
	.loc 1 685 0
	ldr	w2, [x19,144]
	.loc 1 683 0 discriminator 1
	cmp	w1, 8
	.loc 1 685 0
	orr	w0, w0, w2, lsl 7
	.loc 1 683 0 discriminator 1
	beq	.L116
	.loc 1 685 0
	ldr	w2, [x19,148]
	.loc 1 683 0 discriminator 1
	cmp	w1, 9
	.loc 1 685 0
	orr	w0, w0, w2, lsl 8
	.loc 1 683 0 discriminator 1
	beq	.L116
	.loc 1 685 0
	ldr	w2, [x19,152]
	.loc 1 683 0 discriminator 1
	cmp	w1, 10
	.loc 1 685 0
	orr	w0, w0, w2, lsl 9
	.loc 1 683 0 discriminator 1
	beq	.L116
	.loc 1 685 0
	ldr	w2, [x19,156]
	.loc 1 683 0 discriminator 1
	cmp	w1, 11
	.loc 1 685 0
	orr	w0, w0, w2, lsl 10
	.loc 1 683 0 discriminator 1
	beq	.L116
	.loc 1 685 0
	ldr	w2, [x19,160]
	.loc 1 683 0 discriminator 1
	cmp	w1, 12
	.loc 1 685 0
	orr	w0, w0, w2, lsl 11
	.loc 1 683 0 discriminator 1
	beq	.L116
	.loc 1 685 0
	ldr	w2, [x19,164]
	.loc 1 683 0 discriminator 1
	cmp	w1, 13
	.loc 1 685 0
	orr	w0, w0, w2, lsl 12
	.loc 1 683 0 discriminator 1
	beq	.L116
	.loc 1 685 0
	ldr	w2, [x19,168]
	.loc 1 683 0 discriminator 1
	cmp	w1, 14
	.loc 1 685 0
	orr	w0, w0, w2, lsl 13
	.loc 1 683 0 discriminator 1
	beq	.L116
	.loc 1 685 0
	ldr	w2, [x19,172]
	.loc 1 683 0 discriminator 1
	cmp	w1, 15
	.loc 1 685 0
	orr	w0, w0, w2, lsl 14
	.loc 1 683 0 discriminator 1
	beq	.L116
	.loc 1 685 0
	ldr	w1, [x19,176]
	orr	w0, w0, w1, lsl 15
.L116:
	.loc 1 688 0
	str	w0, [x22,52]
	.loc 1 691 0 discriminator 1
	ldr	w1, [x19,72]
	cbz	w1, .L142
	cmp	w1, 1
	.loc 1 693 0
	ldr	w0, [x19,180]
	.loc 1 691 0 discriminator 1
	bls	.L118
	.loc 1 693 0
	ldr	w2, [x19,184]
	.loc 1 691 0 discriminator 1
	cmp	w1, 2
	.loc 1 693 0
	orr	w0, w0, w2, lsl 1
	.loc 1 691 0 discriminator 1
	beq	.L118
	.loc 1 693 0
	ldr	w2, [x19,188]
	.loc 1 691 0 discriminator 1
	cmp	w1, 3
	.loc 1 693 0
	orr	w0, w0, w2, lsl 2
	.loc 1 691 0 discriminator 1
	beq	.L118
	.loc 1 693 0
	ldr	w2, [x19,192]
	.loc 1 691 0 discriminator 1
	cmp	w1, 4
	.loc 1 693 0
	orr	w0, w0, w2, lsl 3
	.loc 1 691 0 discriminator 1
	beq	.L118
	.loc 1 693 0
	ldr	w2, [x19,196]
	.loc 1 691 0 discriminator 1
	cmp	w1, 5
	.loc 1 693 0
	orr	w0, w0, w2, lsl 4
	.loc 1 691 0 discriminator 1
	beq	.L118
	.loc 1 693 0
	ldr	w2, [x19,200]
	.loc 1 691 0 discriminator 1
	cmp	w1, 6
	.loc 1 693 0
	orr	w0, w0, w2, lsl 5
	.loc 1 691 0 discriminator 1
	beq	.L118
	.loc 1 693 0
	ldr	w2, [x19,204]
	.loc 1 691 0 discriminator 1
	cmp	w1, 7
	.loc 1 693 0
	orr	w0, w0, w2, lsl 6
	.loc 1 691 0 discriminator 1
	beq	.L118
	.loc 1 693 0
	ldr	w2, [x19,208]
	.loc 1 691 0 discriminator 1
	cmp	w1, 8
	.loc 1 693 0
	orr	w0, w0, w2, lsl 7
	.loc 1 691 0 discriminator 1
	beq	.L118
	.loc 1 693 0
	ldr	w2, [x19,212]
	.loc 1 691 0 discriminator 1
	cmp	w1, 9
	.loc 1 693 0
	orr	w0, w0, w2, lsl 8
	.loc 1 691 0 discriminator 1
	beq	.L118
	.loc 1 693 0
	ldr	w2, [x19,216]
	.loc 1 691 0 discriminator 1
	cmp	w1, 10
	.loc 1 693 0
	orr	w0, w0, w2, lsl 9
	.loc 1 691 0 discriminator 1
	beq	.L118
	.loc 1 693 0
	ldr	w2, [x19,220]
	.loc 1 691 0 discriminator 1
	cmp	w1, 11
	.loc 1 693 0
	orr	w0, w0, w2, lsl 10
	.loc 1 691 0 discriminator 1
	beq	.L118
	.loc 1 693 0
	ldr	w2, [x19,224]
	.loc 1 691 0 discriminator 1
	cmp	w1, 12
	.loc 1 693 0
	orr	w0, w0, w2, lsl 11
	.loc 1 691 0 discriminator 1
	beq	.L118
	.loc 1 693 0
	ldr	w2, [x19,228]
	.loc 1 691 0 discriminator 1
	cmp	w1, 13
	.loc 1 693 0
	orr	w0, w0, w2, lsl 12
	.loc 1 691 0 discriminator 1
	beq	.L118
	.loc 1 693 0
	ldr	w2, [x19,232]
	.loc 1 691 0 discriminator 1
	cmp	w1, 14
	.loc 1 693 0
	orr	w0, w0, w2, lsl 13
	.loc 1 691 0 discriminator 1
	beq	.L118
	.loc 1 693 0
	ldr	w2, [x19,236]
	.loc 1 691 0 discriminator 1
	cmp	w1, 15
	.loc 1 693 0
	orr	w0, w0, w2, lsl 14
	.loc 1 691 0 discriminator 1
	beq	.L118
	.loc 1 693 0
	ldr	w1, [x19,240]
	orr	w0, w0, w1, lsl 15
.L118:
	.loc 1 696 0
	str	w0, [x22,56]
	.loc 1 700 0 discriminator 1
	ldr	w5, [x19,68]
	cbz	w5, .L126
	add	x3, x19, 372
	mov	w4, 0
	mov	w1, 0
	mov	w8, 15
	b	.L125
.L123:
	.loc 1 710 0
	cmp	w7, w1
	beq	.L241
.L124:
	.loc 1 700 0 discriminator 2
	add	w1, w1, 1
	add	x3, x3, 4
	.loc 1 700 0 is_stmt 0 discriminator 1
	cmp	w5, w1
	bls	.L126
.L125:
	.loc 1 702 0 is_stmt 1
	and	w0, w1, 7
	ldr	w2, [x3]
	lsl	w6, w0, 2
	.loc 1 704 0
	cmp	w0, 7
	.loc 1 702 0
	lsl	w0, w2, w6
	.loc 1 710 0
	sub	w7, w5, #1
	.loc 1 702 0
	orr	w4, w4, w0
	.loc 1 704 0
	bne	.L123
	.loc 1 706 0
	str	w4, [x22,w8,uxtw 2]
	.loc 1 700 0 discriminator 2
	add	w1, w1, 1
	.loc 1 708 0
	add	w8, w8, 1
	.loc 1 707 0
	mov	w4, 0
	ldr	w5, [x19,68]
	add	x3, x3, 4
	.loc 1 700 0 discriminator 1
	cmp	w5, w1
	bhi	.L125
.L126:
	.loc 1 720 0 discriminator 1
	ldr	w5, [x19,72]
	cbz	w5, .L122
	add	x3, x19, 436
	mov	w4, 0
	mov	w1, 0
	mov	w8, 17
	b	.L131
.L129:
	.loc 1 730 0
	cmp	w7, w1
	beq	.L242
.L130:
	.loc 1 720 0 discriminator 2
	add	w1, w1, 1
	add	x3, x3, 4
	.loc 1 720 0 is_stmt 0 discriminator 1
	cmp	w5, w1
	bls	.L122
.L131:
	.loc 1 722 0 is_stmt 1
	and	w0, w1, 7
	ldr	w2, [x3]
	lsl	w6, w0, 2
	.loc 1 724 0
	cmp	w0, 7
	.loc 1 722 0
	lsl	w0, w2, w6
	.loc 1 730 0
	sub	w7, w5, #1
	.loc 1 722 0
	orr	w4, w4, w0
	.loc 1 724 0
	bne	.L129
	.loc 1 726 0
	str	w4, [x22,w8,uxtw 2]
	.loc 1 720 0 discriminator 2
	add	w1, w1, 1
	.loc 1 728 0
	add	w8, w8, 1
	.loc 1 727 0
	mov	w4, 0
	ldr	w5, [x19,72]
	add	x3, x3, 4
	.loc 1 720 0 discriminator 1
	cmp	w5, w1
	bhi	.L131
.L122:
	.loc 1 738 0
	ldr	w0, [x19,564]
	str	w0, [x22,92]
	.loc 1 741 0
	ldr	w0, [x29,112]
	str	w0, [x22,172]
	.loc 1 744 0
	ldr	w0, [x29,120]
	str	w0, [x22,176]
	.loc 1 748 0
	ldr	w0, [x29,104]
.LVL89:
	str	w0, [x22,252]
	.loc 1 751 0
	ldrb	w0, [x20,33]
.LVL90:
	cbz	w0, .L128
	.loc 1 751 0 is_stmt 0 discriminator 1
	ldr	w0, [x19,76]
	cmp	w0, 1
	beq	.L132
.L128:
	.loc 1 751 0 discriminator 3
	ldrb	w0, [x20,32]
	cmp	w0, 1
	beq	.L133
.LVL91:
.L134:
	.loc 1 800 0 is_stmt 1
	mov	w0, 0
.LVL92:
.L110:
	.loc 1 801 0
	ldp	x19, x20, [sp,16]
	.cfi_remember_state
	.cfi_restore 20
	.cfi_restore 19
.LVL93:
	ldp	x21, x22, [sp,32]
	.cfi_restore 22
	.cfi_restore 21
.LVL94:
	ldp	x23, x24, [sp,48]
	.cfi_restore 24
	.cfi_restore 23
.LVL95:
	ldp	x25, x26, [sp,64]
	.cfi_restore 26
	.cfi_restore 25
	ldp	x27, x28, [sp,80]
	.cfi_restore 28
	.cfi_restore 27
.LVL96:
	ldp	x29, x30, [sp], 112
	.cfi_restore 30
	.cfi_restore 29
	.cfi_def_cfa 31, 0
	ret
.LVL97:
.L241:
	.cfi_restore_state
	.loc 1 712 0
	str	w4, [x22,w8,uxtw 2]
	ldr	w5, [x19,68]
	b	.L124
.L242:
	.loc 1 732 0
	str	w4, [x22,w8,uxtw 2]
	ldr	w5, [x19,72]
	b	.L130
.L140:
	.loc 1 596 0
	ldr	w4, [x21]
	.loc 1 617 0
	mov	x1, x26
	mov	w2, w24
	mov	w3, w28
	mov	w0, 4
	mov	w5, 1
	.loc 1 596 0
	cbnz	w4, .L112
	.loc 1 616 0
	str	wzr, [x23]
	str	x5, [x29,96]
	.loc 1 617 0
	ldr	w4, [x23]
	bl	dprint_linux_kernel
.LVL98:
	.loc 1 620 0
	str	wzr, [x23,4]
	.loc 1 621 0
	mov	x1, x26
	add	w2, w24, 1
	ldr	w4, [x23,4]
	mov	w3, w25
	mov	w0, 4
	bl	dprint_linux_kernel
.LVL99:
	.loc 1 624 0
	str	wzr, [x23,8]
	.loc 1 625 0
	mov	w0, 4
	mov	x1, x26
	ldr	w4, [x23,8]
	add	w2, w24, 2
	add	w3, w25, w0
	bl	dprint_linux_kernel
.LVL100:
	ldr	x5, [x29,96]
	b	.L114
.LVL101:
.L133:
	.loc 1 752 0
	ldr	w0, [x19,76]
	cbnz	w0, .L134
.L132:
	.loc 1 756 0
	mov	x1, x22
	mov	w0, 64
	bl	HEVC_GetVirAddr
.LVL102:
	mov	x20, x0
.LVL103:
	.loc 1 759 0
	mov	x1, x22
	mov	w0, 128
	bl	HEVC_GetVirAddr
.LVL104:
	.loc 1 761 0 discriminator 1
	ldr	w1, [x19,68]
	cbz	w1, .L138
	add	x3, x19, 588
	mov	x22, x20
.LVL105:
	add	x1, x19, 844
.LVL106:
	add	x7, x0, 128
	mov	w6, 0
.L137:
	.loc 1 763 0
	ldrb	w5, [x3,128]
	add	x1, x1, 8
	.loc 1 764 0
	ldr	w4, [x3]
	.loc 1 761 0 discriminator 3
	add	w6, w6, 1
	.loc 1 765 0
	ldr	w2, [x19,580]
	add	x3, x3, 4
	.loc 1 764 0
	ubfiz	w4, w4, 3, 9
	.loc 1 763 0
	orr	w4, w4, w5, lsl 12
	.loc 1 765 0
	and	w2, w2, 7
	.loc 1 763 0
	orr	w2, w4, w2
	.loc 1 766 0
	str	w2, [x22],4
	.loc 1 769 0
	ldr	w4, [x1,-8]
	.loc 1 768 0
	ldrb	w5, [x1,248]
	.loc 1 770 0
	ldr	w2, [x19,584]
	.loc 1 769 0
	ubfiz	w4, w4, 3, 9
	.loc 1 768 0
	orr	w4, w4, w5, lsl 12
	.loc 1 770 0
	and	w2, w2, 7
	.loc 1 768 0
	orr	w2, w4, w2
	.loc 1 771 0
	str	w2, [x7,-128]
	.loc 1 773 0
	ldrb	w4, [x1,252]
	.loc 1 774 0
	ldr	w2, [x1,-4]
	and	w2, w2, 511
	.loc 1 773 0
	orr	w2, w2, w4, lsl 9
	.loc 1 775 0
	str	w2, [x7],4
	.loc 1 761 0 discriminator 1
	ldr	w2, [x19,68]
	cmp	w2, w6
	bhi	.L137
.LVL107:
.L138:
	.loc 1 779 0
	ldr	w1, [x19,76]
	cbnz	w1, .L134
	.loc 1 781 0 discriminator 1
	ldr	w1, [x19,72]
	cbz	w1, .L134
	add	x6, x19, 652
	add	x20, x20, 64
.LVL108:
	add	x2, x19, 972
	add	x0, x0, 192
.LVL109:
	mov	w8, 0
.L139:
	.loc 1 783 0
	ldrb	w4, [x6,128]
	add	x2, x2, 8
	.loc 1 784 0
	ldr	w1, [x6]
	.loc 1 781 0 discriminator 3
	add	w8, w8, 1
	.loc 1 785 0
	ldr	w3, [x19,580]
	add	x6, x6, 4
	.loc 1 784 0
	ubfiz	w1, w1, 3, 9
	.loc 1 783 0
	orr	w1, w1, w4, lsl 12
	.loc 1 785 0
	and	w3, w3, 7
	.loc 1 783 0
	orr	w1, w1, w3
	.loc 1 786 0
	str	w1, [x20],4
	.loc 1 788 0
	ldrb	w1, [x2,248]
	.loc 1 789 0
	ldr	w4, [x2,-8]
	.loc 1 790 0
	ldr	w5, [x19,584]
	.loc 1 789 0
	ubfiz	w4, w4, 3, 9
	.loc 1 788 0
	orr	w4, w4, w1, lsl 12
	.loc 1 790 0
	and	w5, w5, 7
	.loc 1 788 0
	orr	w4, w4, w5
	.loc 1 791 0
	str	w4, [x0,-128]
	.loc 1 793 0
	ldrb	w22, [x2,252]
.LVL110:
	.loc 1 794 0
	ldr	w7, [x2,-4]
	and	w7, w7, 511
	.loc 1 793 0
	orr	w7, w7, w22, lsl 9
	.loc 1 795 0
	str	w7, [x0],4
	.loc 1 781 0 discriminator 1
	ldr	w1, [x19,72]
	cmp	w1, w8
	bhi	.L139
	b	.L134
.LVL111:
.L141:
	.loc 1 683 0 discriminator 1
	mov	w0, 0
	b	.L116
.L142:
	.loc 1 691 0 discriminator 1
	mov	w0, 0
	b	.L118
.LVL112:
.L239:
	.loc 1 577 0 discriminator 1
	adrp	x2, .LANCHOR0
	adrp	x1, .LC0
	add	x2, x2, :lo12:.LANCHOR0
	adrp	x4, .LC12
	mov	w0, 0
.LVL113:
	add	x1, x1, :lo12:.LC0
	add	x2, x2, 2016
	mov	w3, 577
	add	x4, x4, :lo12:.LC12
	bl	dprint_linux_kernel
.LVL114:
	mov	w0, -1
	.loc 1 577 0 is_stmt 0
	b	.L110
.LVL115:
.L240:
	.loc 1 592 0 is_stmt 1
	adrp	x2, .LANCHOR0
	adrp	x1, .LC13
	add	x2, x2, :lo12:.LANCHOR0
	mov	w0, 0
	add	x1, x1, :lo12:.LC13
	add	x2, x2, 2016
	bl	dprint_linux_kernel
.LVL116:
	.loc 1 593 0
	mov	w0, -1
	b	.L110
	.cfi_endproc
.LFE2138:
	.size	HEVCHAL_SetSliceMsg, .-HEVCHAL_SetSliceMsg
	.align	2
	.global	HEVCHAL_CfgVdmReg
	.type	HEVCHAL_CfgVdmReg, %function
HEVCHAL_CfgVdmReg:
.LFB2139:
	.loc 1 805 0
	.cfi_startproc
.LVL117:
	stp	x29, x30, [sp, -96]!
	.cfi_def_cfa_offset 96
	.cfi_offset 29, -96
	.cfi_offset 30, -88
	.loc 1 809 0
	adrp	x4, g_VdmDrvParam
	.loc 1 805 0
	add	x29, sp, 0
	.cfi_def_cfa_register 29
	stp	x23, x24, [sp,48]
	stp	x19, x20, [sp,16]
	.cfi_offset 23, -48
	.cfi_offset 24, -40
	.cfi_offset 19, -80
	.cfi_offset 20, -72
	sxtw	x24, w2
	adrp	x20, __stack_chk_guard
	.loc 1 809 0
	add	x4, x4, :lo12:g_VdmDrvParam
	lsl	x2, x24, 4
.LVL118:
	add	x4, x4, x24, lsl 6
	.loc 1 805 0
	str	x25, [sp,64]
	ldr	x5, [x20,#:lo12:__stack_chk_guard]
	.loc 1 809 0
	sub	x4, x4, x2
	.loc 1 805 0
	stp	x21, x22, [sp,32]
	.cfi_offset 25, -32
	.cfi_offset 21, -64
	.cfi_offset 22, -56
	.loc 1 814 0
	cmp	w24, wzr
	.loc 1 805 0
	str	x5, [x29,88]
	mov	x3, x24
.LVL119:
	mov	x23, x0
	mov	x25, x1
	.loc 1 809 0
	ldr	w4, [x4,8]
	.loc 1 814 0
	bgt	.L256
	.loc 1 840 0
	ldr	w1, [x0,16]
	.loc 1 837 0
	mov	w0, 1
.LVL120:
	ldrb	w5, [x23,1]
.LVL121:
	.loc 1 846 0 discriminator 1
	add	x2, x2, x24, lsl 2
	.loc 1 840 0
	ldr	w3, [x23,20]
	.loc 1 846 0 discriminator 1
	adrp	x21, g_HwMem
	.loc 1 832 0
	str	wzr, [x29,84]
.LVL122:
	.loc 1 837 0
	bfi	w0, w5, 6, 1
	.loc 1 834 0
	strb	wzr, [x29,86]
	.loc 1 846 0 discriminator 1
	sub	x2, x2, x24
	.loc 1 839 0
	strb	w0, [x29,87]
	.loc 1 846 0 discriminator 1
	add	x5, x21, :lo12:g_HwMem
	.loc 1 840 0
	madd	w3, w1, w3, w3
	ldr	w0, [x29,84]
	.loc 1 846 0 discriminator 1
	lsl	x2, x2, 6
	.loc 1 840 0
	add	w1, w3, w1
	bfi	w0, w1, 0, 20
	str	w0, [x29,84]
	.loc 1 844 0
	ubfx	x0, x0, 24, 7
	.loc 1 846 0 discriminator 1
	ldr	x1, [x5,x2]
	.loc 1 844 0
	strb	w0, [x29,87]
	.loc 1 846 0 discriminator 1
	ldr	w0, [x29,84]
	str	w0, [x1,8]
	.loc 1 850 0
	adrp	x0, s_pstVfmwChan
	add	x0, x0, :lo12:s_pstVfmwChan
.LVL123:
	ldr	x0, [x0,w4,sxtw 3]
	cbz	x0, .L251
	.loc 1 852 0
	ldrb	w0, [x0,40]
	cmp	w0, 1
	cset	w6, eq
.L246:
	.loc 1 858 0
	str	wzr, [x29,84]
	.loc 1 863 0
	mov	w0, 32
	strb	w0, [x29,87]
	.loc 1 868 0 discriminator 1
	lsl	x19, x24, 4
	.loc 1 864 0
	mov	w0, 3
	.loc 1 868 0 discriminator 1
	add	x19, x19, x24, lsl 2
	.loc 1 864 0
	ldrh	w3, [x29,86]
	.loc 1 868 0 discriminator 1
	sub	x19, x19, x24
	.loc 1 860 0
	ldr	w5, [x23,1308]
	.loc 1 868 0 discriminator 1
	lsl	x19, x19, 6
	.loc 1 864 0
	bfi	w3, w0, 0, 12
	.loc 1 866 0
	ldr	w4, [x23,1296]
.LVL124:
	.loc 1 865 0
	lsr	x1, x3, 8
	.loc 1 868 0 discriminator 1
	add	x22, x21, :lo12:g_HwMem
	.loc 1 860 0
	mov	w2, 0
	.loc 1 866 0
	and	w1, w1, -17
	.loc 1 860 0
	bfi	w2, w5, 6, 1
	.loc 1 866 0
	bfi	w1, w4, 6, 1
	.loc 1 864 0
	strh	w3, [x29,86]
	.loc 1 867 0
	and	w1, w1, 127
	.loc 1 862 0
	orr	w2, w2, -128
	.loc 1 867 0
	strb	w1, [x29,87]
	.loc 1 868 0 discriminator 1
	ldr	x3, [x22,x19]
	.loc 1 862 0
	bfi	w2, w6, 5, 1
	.loc 1 859 0
	mov	w1, 13
	.loc 1 862 0
	strb	w2, [x29,85]
	.loc 1 859 0
	strb	w1, [x29,84]
	.loc 1 874 0
	adrp	x1, .LC16
	add	x1, x1, :lo12:.LC16
	.loc 1 868 0 discriminator 1
	ldr	w2, [x29,84]
	str	w2, [x3,12]
	.loc 1 872 0
	ldr	w3, [x25,52]
	.loc 1 873 0 discriminator 1
	ldr	x4, [x22,x19]
	.loc 1 872 0
	and	w3, w3, -16
	.loc 1 874 0
	mov	w2, w3
	.loc 1 873 0 discriminator 1
	str	w3, [x4,16]
	.loc 1 874 0
	bl	dprint_linux_kernel
.LVL125:
	.loc 1 924 0
	str	wzr, [x29,84]
	.loc 1 879 0 discriminator 1
	ldr	x1, [x22,x19]
	.loc 1 888 0 discriminator 1
	mov	w6, 3075
	.loc 1 878 0
	ldr	w0, [x25,36]
	.loc 1 888 0 discriminator 1
	movk	w6, 0x30, lsl 16
	.loc 1 889 0 discriminator 1
	mov	w5, 3075
	.loc 1 890 0 discriminator 1
	mov	w4, 3075
	.loc 1 878 0
	and	w0, w0, -16
	.loc 1 879 0 discriminator 1
	str	w0, [x1,20]
	.loc 1 889 0 discriminator 1
	movk	w5, 0x30, lsl 16
	.loc 1 890 0 discriminator 1
	movk	w4, 0x30, lsl 16
	.loc 1 884 0 discriminator 1
	ldr	x1, [x22,x19]
	.loc 1 891 0 discriminator 1
	mov	w3, 3075
	.loc 1 883 0
	ldr	w0, [x23,1300]
	.loc 1 891 0 discriminator 1
	movk	w3, 0x30, lsl 16
	.loc 1 892 0 discriminator 1
	mov	w2, 3075
	.loc 1 883 0
	and	w0, w0, -16
	.loc 1 884 0 discriminator 1
	str	w0, [x1,24]
	.loc 1 892 0 discriminator 1
	movk	w2, 0x30, lsl 16
	.loc 1 893 0 discriminator 1
	mov	w1, 3075
	.loc 1 888 0 discriminator 1
	ldr	x7, [x22,x19]
	.loc 1 893 0 discriminator 1
	movk	w1, 0x30, lsl 16
	.loc 1 894 0 discriminator 1
	mov	w0, 3075
	movk	w0, 0x30, lsl 16
	.loc 1 888 0 discriminator 1
	str	w6, [x7,60]
	.loc 1 889 0 discriminator 1
	ldr	x6, [x22,x19]
	str	w5, [x6,64]
	.loc 1 890 0 discriminator 1
	ldr	x5, [x22,x19]
	str	w4, [x5,68]
	.loc 1 891 0 discriminator 1
	ldr	x4, [x22,x19]
	str	w3, [x4,72]
	.loc 1 892 0 discriminator 1
	ldr	x3, [x22,x19]
	str	w2, [x3,76]
	.loc 1 893 0 discriminator 1
	ldr	x2, [x22,x19]
	str	w1, [x2,80]
	.loc 1 894 0 discriminator 1
	ldr	x1, [x22,x19]
	str	w0, [x1,84]
	.loc 1 910 0
	ldr	w0, [x23,1280]
	.loc 1 911 0 discriminator 1
	ldr	x1, [x22,x19]
	.loc 1 910 0
	add	x0, x0, 328
	ldr	w0, [x23,x0,lsl 2]
	and	w0, w0, -256
	.loc 1 911 0 discriminator 1
	str	w0, [x1,96]
	.loc 1 916 0 discriminator 1
	ldr	x0, [x22,x19]
	ldr	w1, [x23,1288]
	str	w1, [x0,100]
	.loc 1 921 0 discriminator 1
	ldr	x0, [x22,x19]
	ldr	w1, [x23,1292]
	str	w1, [x0,104]
	.loc 1 936 0 discriminator 1
	mov	x1, 0
	.loc 1 925 0 discriminator 1
	ldr	x0, [x22,x19]
	str	wzr, [x0,108]
	.loc 1 930 0 discriminator 1
	ldr	x0, [x22,x19]
	str	wzr, [x0,128]
	.loc 1 936 0 discriminator 1
	ldr	x0, [x22,x19]
	str	w1, [x0,132]
	.loc 1 940 0
	ldr	w0, [x23,188]
	cmp	w0, 4096
	bls	.L247
	.loc 1 950 0
	adrp	x19, gScdRegBaseAddr
	ldr	w0, [x19,#:lo12:gScdRegBaseAddr]
	add	w0, w0, 4
	bl	MEM_ReadPhyWord
.LVL126:
	.loc 1 953 0
	and	w1, w0, -65537
.L249:
	.loc 1 959 0
	ldr	w0, [x19,#:lo12:gScdRegBaseAddr]
	.loc 1 963 0 discriminator 1
	lsl	x19, x24, 4
	add	x19, x19, x24, lsl 2
	add	x21, x21, :lo12:g_HwMem
	sub	x19, x19, x24
	.loc 1 959 0
	add	w0, w0, 4
	.loc 1 963 0 discriminator 1
	lsl	x19, x19, 6
	.loc 1 959 0
	bl	MEM_WritePhyWord
.LVL127:
	.loc 1 963 0 discriminator 1
	mov	w3, 2
	.loc 1 964 0
	adrp	x1, .LC17
	.loc 1 963 0 discriminator 1
	ldr	x4, [x21,x19]
	.loc 1 964 0
	mov	w0, 3
	add	x1, x1, :lo12:.LC17
	mov	w2, w3
	.loc 1 963 0 discriminator 1
	str	w3, [x4,152]
	.loc 1 964 0
	bl	dprint_linux_kernel
.LVL128:
	.loc 1 966 0
	mov	w0, 0
.L245:
	.loc 1 967 0
	ldr	x2, [x29,88]
	ldr	x1, [x20,#:lo12:__stack_chk_guard]
	cmp	x2, x1
	bne	.L257
	ldp	x19, x20, [sp,16]
	.cfi_remember_state
	.cfi_restore 20
	.cfi_restore 19
	ldp	x21, x22, [sp,32]
	.cfi_restore 22
	.cfi_restore 21
	ldp	x23, x24, [sp,48]
	.cfi_restore 24
	.cfi_restore 23
.LVL129:
	ldr	x25, [sp,64]
	.cfi_restore 25
.LVL130:
	ldp	x29, x30, [sp], 96
	.cfi_restore 30
	.cfi_restore 29
	.cfi_def_cfa 31, 0
	ret
.LVL131:
.L247:
	.cfi_restore_state
	.loc 1 950 0
	adrp	x19, gScdRegBaseAddr
	ldr	w0, [x19,#:lo12:gScdRegBaseAddr]
	add	w0, w0, 4
	bl	MEM_ReadPhyWord
.LVL132:
	.loc 1 957 0
	orr	w1, w0, 65536
	b	.L249
.LVL133:
.L251:
	mov	w6, 0
	b	.L246
.LVL134:
.L256:
	.loc 1 816 0
	adrp	x2, .LANCHOR0
	adrp	x1, .LC15
	add	x2, x2, :lo12:.LANCHOR0
	mov	w0, 0
	add	x1, x1, :lo12:.LC15
	add	x2, x2, 2056
	mov	w4, 0
	bl	dprint_linux_kernel
.LVL135:
	.loc 1 817 0
	mov	w0, -1
	b	.L245
.LVL136:
.L257:
	.loc 1 967 0
	bl	__stack_chk_fail
.LVL137:
	.cfi_endproc
.LFE2139:
	.size	HEVCHAL_CfgVdmReg, .-HEVCHAL_CfgVdmReg
	.align	2
	.global	HEVCHAL_StartDec
	.type	HEVCHAL_StartDec, %function
HEVCHAL_StartDec:
.LFB2140:
	.loc 1 971 0
	.cfi_startproc
.LVL138:
	sub	sp, sp, #144
	.cfi_def_cfa_offset 144
	stp	x29, x30, [sp,16]
	.cfi_offset 29, -128
	.cfi_offset 30, -120
	add	x29, sp, 16
	.cfi_def_cfa 29, 128
	stp	x25, x26, [sp,80]
	.cfi_offset 25, -64
	.cfi_offset 26, -56
	sxtw	x26, w1
	mov	x25, x0
	stp	x19, x20, [sp,32]
	.cfi_offset 19, -112
	.cfi_offset 20, -104
	.loc 1 991 0
	lsl	x19, x26, 4
	.loc 1 997 0
	cmp	w26, wzr
	.loc 1 991 0
	add	x19, x19, x26, lsl 2
	.loc 1 971 0
	mov	x20, x26
	stp	x23, x24, [sp,64]
	stp	x21, x22, [sp,48]
	.cfi_offset 23, -80
	.cfi_offset 24, -72
	.cfi_offset 21, -96
	.cfi_offset 22, -88
	.loc 1 991 0
	adrp	x23, g_HwMem
	sub	x19, x19, x26
	.loc 1 971 0
	stp	x27, x28, [sp,96]
	.cfi_offset 27, -48
	.cfi_offset 28, -40
	.loc 1 991 0
	add	x21, x23, :lo12:g_HwMem
	lsl	x19, x19, 6
	add	x24, x19, x21
.LVL139:
	.loc 1 997 0
	bgt	.L316
	.loc 1 1015 0
	cbz	x0, .L317
	.loc 1 1016 0
	ldr	w0, [x0,2404]
	cmp	w0, 16
	bhi	.L318
	.loc 1 1018 0
	ldr	x0, [x21,x19]
	cbz	x0, .L319
.LVL140:
.L263:
	.loc 1 1037 0
	mov	w2, w20
	mov	x1, x24
	mov	x0, x25
.LVL141:
	bl	HEVCHAL_CfgVdmReg
.LVL142:
	.loc 1 1040 0
	lsl	x2, x26, 4
	add	x3, x23, :lo12:g_HwMem
	add	x2, x2, x26, lsl 2
	mov	x0, x25
	sub	x2, x2, x26
	mov	x1, x24
	add	x3, x3, x2, lsl 6
	ldr	w2, [x3,52]
	ldr	w3, [x3,56]
	bl	HEVCHAL_SetPicMsg
.LVL143:
	.loc 1 1043 0
	ldr	x20, [x25,2416]
.LVL144:
	.loc 1 1045 0
	cbz	x20, .L320
	.loc 1 1052 0
	ldr	w28, [x20,92]
	cbnz	w28, .L321
	mov	x22, x20
	.loc 1 974 0
	mov	w27, 0
.LVL145:
.L266:
	.loc 1 1103 0
	ldr	w28, [x25,20]
	ldr	w21, [x25,16]
	.loc 1 1107 0 discriminator 1
	ldr	w1, [x25,2408]
	.loc 1 1103 0
	madd	w2, w28, w21, w21
	.loc 1 1107 0 discriminator 1
	cmp	w1, wzr
	.loc 1 1103 0
	add	w28, w2, w28
	.loc 1 1107 0 discriminator 1
	ble	.L269
	.loc 1 1110 0
	lsl	x21, x26, 4
	add	x0, x23, :lo12:g_HwMem
	add	x21, x21, x26, lsl 2
	add	w8, w27, 4
	sub	x21, x21, x26
	.loc 1 1111 0
	add	w9, w27, 5
	.loc 1 1110 0
	lsl	x21, x21, 4
	add	x3, x21, x8, sxtw
	.loc 1 1111 0
	add	x2, x21, x9, sxtw
	.loc 1 1110 0
	add	x3, x0, x3, lsl 2
	.loc 1 1111 0
	add	x0, x0, x2, lsl 2
	.loc 1 1110 0
	ldr	w4, [x3,36]
	.loc 1 1111 0
	ldr	w3, [x0,36]
	.loc 1 1113 0
	cbz	x22, .L270
	.loc 1 1120 0
	ldr	w7, [x22,92]
	mov	w5, w9
	mov	w10, 0
.LVL146:
	mov	w20, 0
.LVL147:
.L271:
	.loc 1 1129 0
	add	w20, w20, 1
	.loc 1 1129 0 is_stmt 0 discriminator 1
	cmp	w20, w1
	bge	.L292
	.loc 1 1131 0 is_stmt 1
	ldr	x19, [x22,1360]
	.loc 1 1133 0
	cbnz	x19, .L314
	b	.L274
.L276:
	.loc 1 1129 0 discriminator 2
	add	w20, w20, 1
	.loc 1 1129 0 is_stmt 0 discriminator 1
	cmp	w20, w1
	bge	.L273
	.loc 1 1131 0 is_stmt 1
	ldr	x19, [x19,1360]
	.loc 1 1133 0
	cbz	x19, .L274
.L314:
	.loc 1 1135 0
	ldr	w0, [x19,92]
	cmp	w0, w7
	bls	.L276
.L273:
	.loc 1 1147 0 discriminator 1
	cmp	w1, w20
	beq	.L294
	cmp	w5, 204
	beq	.L294
	.loc 1 1156 0
	ldr	w5, [x19,92]
	.loc 1 1158 0
	subs	w5, w5, #1
	bmi	.L322
	.loc 1 1164 0
	ldrb	w0, [x25,217]
	mov	w2, w5
	cbz	w0, .L282
	.loc 1 1166 0
	ldr	w2, [x19,568]
.L282:
	.loc 1 1173 0
	add	x0, x23, :lo12:g_HwMem
	add	w1, w20, w9
	add	x1, x21, x1, sxtw
	add	x0, x0, x1, lsl 2
	.loc 1 1177 0
	cmp	w2, w28
	.loc 1 1173 0
	ldr	w11, [x0,36]
	.loc 1 1177 0
	bgt	.L295
	cmp	w28, w5
	blt	.L295
.L280:
	.loc 1 1183 0
	str	w5, [x22,572]
	.loc 1 1186 0
	cmp	w5, w7
	bcc	.L323
	.loc 1 1196 0
	ldr	w1, [x25,2408]
	.loc 1 1194 0
	sub	w0, w20, #1
	.loc 1 1196 0
	sub	w1, w1, #1
	cmp	w1, w0
	beq	.L324
.L285:
	.loc 1 1204 0
	ldr	w6, [x22,80]
.LVL148:
	mov	x0, x25
	str	w2, [sp]
	mov	x1, x24
	str	w5, [sp,8]
	mov	x2, x22
	mov	w5, w11
	str	x9, [x29,96]
	str	x8, [x29,104]
	str	x10, [x29,112]
	str	x11, [x29,120]
	bl	HEVCHAL_SetSliceMsg
.LVL149:
	ldr	x11, [x29,120]
	mov	w5, w0
	ldr	x10, [x29,112]
.LVL150:
	ldr	x8, [x29,104]
	ldr	x9, [x29,96]
	cbnz	w0, .L325
	.loc 1 1210 0
	add	w10, w10, 1
	.loc 1 1211 0
	ldr	w6, [x22,572]
	ldr	w1, [x25,2408]
	.loc 1 1213 0
	cbz	w11, .L288
	.loc 1 1107 0 discriminator 1
	cmp	w1, w20
	ble	.L288
	.loc 1 1110 0
	add	x0, x23, :lo12:g_HwMem
	.loc 1 1120 0
	ldr	w7, [x19,92]
	.loc 1 1110 0
	add	w22, w20, w8
	.loc 1 1111 0
	add	w5, w20, w9
	.loc 1 1110 0
	add	x22, x21, x22, sxtw
	.loc 1 1111 0
	add	x2, x21, x5, sxtw
	.loc 1 1110 0
	add	x22, x0, x22, lsl 2
	.loc 1 1111 0
	add	x0, x0, x2, lsl 2
.LVL151:
	.loc 1 1120 0 discriminator 1
	cmp	w7, w6
	.loc 1 1110 0
	ldr	w4, [x22,36]
	.loc 1 1111 0
	ldr	w3, [x0,36]
	.loc 1 1120 0 discriminator 1
	bcc	.L272
	mov	x22, x19
	b	.L271
.LVL152:
.L321:
	.loc 1 1057 0
	ldrb	w0, [x25,217]
	.loc 1 1055 0
	sub	w8, w28, #1
	.loc 1 1065 0
	mov	w3, w8
	.loc 1 1057 0
	cbz	w0, .L267
	.loc 1 1060 0
	ldr	w3, [x20,568]
.L267:
	.loc 1 1083 0
	lsl	x19, x26, 4
	.loc 1 1069 0
	ldr	w10, [x20]
	.loc 1 1070 0
	ldr	w12, [x20,4]
	.loc 1 1083 0
	add	x19, x19, x26, lsl 2
	.loc 1 1076 0
	str	wzr, [x20,4]
	.loc 1 1075 0
	mov	w27, 1
	.loc 1 1071 0
	ldr	w11, [x20,8]
	.loc 1 1083 0
	sub	x22, x19, x26
	.loc 1 1075 0
	str	w27, [x20]
	.loc 1 1083 0
	add	x21, x23, :lo12:g_HwMem
	.loc 1 1077 0
	str	wzr, [x20,8]
	.loc 1 1083 0
	add	x21, x21, x22, lsl 6
	.loc 1 1072 0
	ldr	w9, [x20,12]
	.loc 1 1086 0
	mov	x0, x25
	.loc 1 1078 0
	str	wzr, [x20,12]
	.loc 1 1086 0
	mov	x1, x24
	.loc 1 1073 0
	ldr	w22, [x20,16]
	.loc 1 1086 0
	mov	x2, x20
	.loc 1 1079 0
	ldr	w4, [x25,1300]
	.loc 1 1086 0
	mov	w6, 0
	.loc 1 1079 0
	str	w4, [x20,16]
	.loc 1 1086 0
	mov	w7, 0
	.loc 1 1074 0
	ldr	w19, [x20,20]
	.loc 1 1080 0
	str	wzr, [x20,20]
	.loc 1 1086 0
	str	w3, [sp]
	.loc 1 1069 0
	str	x10, [x29,96]
	.loc 1 1086 0
	ldr	w3, [x21,56]
	ldr	w4, [x21,52]
	ldr	w5, [x21,60]
	str	w8, [sp,8]
	.loc 1 1070 0
	str	x12, [x29,104]
	.loc 1 1071 0
	str	x11, [x29,112]
	.loc 1 1072 0
	str	x9, [x29,120]
	.loc 1 1086 0
	bl	HEVCHAL_SetSliceMsg
.LVL153:
	ldr	x9, [x29,120]
	ldr	x11, [x29,112]
	ldr	x12, [x29,104]
	ldr	x10, [x29,96]
	cbnz	w0, .L326
	.loc 1 1092 0
	str	w28, [x20,92]
	.loc 1 1093 0
	str	w10, [x20]
	.loc 1 1094 0
	str	w12, [x20,4]
	.loc 1 1095 0
	str	w11, [x20,8]
	.loc 1 1096 0
	str	w9, [x20,12]
	.loc 1 1097 0
	str	w22, [x20,16]
	.loc 1 1098 0
	str	w19, [x20,20]
	ldr	x22, [x25,2416]
	b	.L266
.LVL154:
.L274:
	.loc 1 1142 0
	adrp	x1, .LC25
	mov	w0, 1
	add	x1, x1, :lo12:.LC25
.LVL155:
.L315:
	.loc 1 1206 0
	adrp	x2, .LANCHOR0
	.loc 1 1207 0
	mov	w5, -1
	.loc 1 1206 0
	add	x2, x2, :lo12:.LANCHOR0
	.loc 1 1207 0
	str	x5, [x29,120]
	.loc 1 1206 0
	add	x2, x2, 2080
	bl	dprint_linux_kernel
.LVL156:
	.loc 1 1207 0
	ldr	x5, [x29,120]
.L260:
	.loc 1 1231 0
	sub	sp, x29, #16
	.cfi_remember_state
	.cfi_def_cfa 31, 144
	mov	w0, w5
	ldp	x19, x20, [sp,32]
	.cfi_restore 20
	.cfi_restore 19
.LVL157:
	ldp	x21, x22, [sp,48]
	.cfi_restore 22
	.cfi_restore 21
	ldp	x23, x24, [sp,64]
	.cfi_restore 24
	.cfi_restore 23
.LVL158:
	ldp	x25, x26, [sp,80]
	.cfi_restore 26
	.cfi_restore 25
.LVL159:
	ldp	x27, x28, [sp,96]
	.cfi_restore 28
	.cfi_restore 27
.LVL160:
	ldp	x29, x30, [sp,16]
	.cfi_restore 30
	.cfi_restore 29
	add	sp, sp, 144
	.cfi_def_cfa_offset 0
	ret
.LVL161:
.L324:
	.cfi_restore_state
	.loc 1 1198 0
	str	xzr, [x22,1360]
	b	.L285
.L294:
	.loc 1 1152 0
	str	xzr, [x22,1360]
	.loc 1 1103 0
	mov	w2, w28
	mov	w5, w28
	.loc 1 1151 0
	mov	w11, 0
	b	.L280
.LVL162:
.L319:
	.loc 1 1020 0
	adrp	x0, gVdhRegBaseAddr
	ldr	w0, [x0,#:lo12:gVdhRegBaseAddr]
	bl	MEM_Phy2Vir
.LVL163:
	cbz	x0, .L264
	.loc 1 1022 0
	str	x0, [x21,x19]
	b	.L263
.LVL164:
.L292:
	.loc 1 1129 0 discriminator 1
	mov	x19, x22
	b	.L273
.LVL165:
.L288:
	str	x5, [x29,120]
	.loc 1 1220 0 discriminator 1
	cmp	w1, wzr
	ble	.L269
	cbz	w10, .L269
	.loc 1 1222 0
	lsl	x0, x26, 4
	add	w19, w27, w1
	add	x0, x0, x26, lsl 2
	add	x23, x23, :lo12:g_HwMem
	sub	x0, x0, x26
	add	w19, w19, 4
	lsl	x0, x0, 4
	add	x0, x0, x19, sxtw
	add	x0, x23, x0, lsl 2
	ldr	w0, [x0,36]
	bl	HEVCHAL_CutSliceChain
.LVL166:
	.loc 1 1230 0
	ldr	x5, [x29,120]
	b	.L260
.LVL167:
.L316:
	.loc 1 999 0
	adrp	x2, .LANCHOR0
	adrp	x1, .LC15
	add	x2, x2, :lo12:.LANCHOR0
	.loc 1 1000 0
	mov	w5, -1
	.loc 1 999 0
	mov	w0, 0
	add	x1, x1, :lo12:.LC15
	add	x2, x2, 2080
	mov	w3, w26
	mov	w4, 0
	.loc 1 1000 0
	str	x5, [x29,120]
	.loc 1 999 0
	bl	dprint_linux_kernel
.LVL168:
	.loc 1 1000 0
	ldr	x5, [x29,120]
	b	.L260
.LVL169:
.L270:
	.loc 1 1115 0
	adrp	x2, .LANCHOR0
	adrp	x1, .LC23
	add	x2, x2, :lo12:.LANCHOR0
	.loc 1 1116 0
	mov	w5, -1
	.loc 1 1115 0
	mov	w0, 1
	add	x1, x1, :lo12:.LC23
	add	x2, x2, 2080
	mov	w3, 0
	.loc 1 1116 0
	str	x5, [x29,120]
	.loc 1 1115 0
	bl	dprint_linux_kernel
.LVL170:
	.loc 1 1116 0
	ldr	x5, [x29,120]
	b	.L260
.LVL171:
.L325:
	.loc 1 1206 0
	adrp	x1, .LC29
	mov	w0, 1
	add	x1, x1, :lo12:.LC29
	b	.L315
.LVL172:
.L295:
	.loc 1 1179 0
	adrp	x1, .LC27
	mov	w3, w5
	mov	w0, 1
	.loc 1 1180 0
	mov	w5, -1
	.loc 1 1179 0
	add	x1, x1, :lo12:.LC27
	mov	w4, w28
	.loc 1 1180 0
	str	x5, [x29,120]
	.loc 1 1179 0
	bl	dprint_linux_kernel
.LVL173:
	.loc 1 1180 0
	ldr	x5, [x29,120]
	b	.L260
.LVL174:
.L323:
	.loc 1 1189 0
	adrp	x1, .LC28
	mov	w3, w5
	mov	w0, 1
	.loc 1 1191 0
	mov	w5, -1
	.loc 1 1189 0
	add	x1, x1, :lo12:.LC28
	mov	w2, w7
	.loc 1 1191 0
	str	x5, [x29,120]
	.loc 1 1189 0
	bl	dprint_linux_kernel
.LVL175:
	.loc 1 1191 0
	ldr	x5, [x29,120]
	b	.L260
.LVL176:
.L272:
	.loc 1 1123 0
	adrp	x1, .LC24
	.loc 1 1125 0
	mov	w5, -1
	.loc 1 1123 0
	mov	w0, 1
	add	x1, x1, :lo12:.LC24
	mov	w2, w7
	mov	w3, w6
	.loc 1 1125 0
	str	x5, [x29,120]
	.loc 1 1123 0
	bl	dprint_linux_kernel
.LVL177:
	.loc 1 1125 0
	ldr	x5, [x29,120]
	b	.L260
.LVL178:
.L322:
	.loc 1 1160 0
	adrp	x2, .LANCHOR0
	adrp	x1, .LC26
	add	x2, x2, :lo12:.LANCHOR0
	mov	w3, w5
	mov	w0, 1
	.loc 1 1161 0
	mov	w5, -1
	.loc 1 1160 0
	add	x1, x1, :lo12:.LC26
	add	x2, x2, 2080
	.loc 1 1161 0
	str	x5, [x29,120]
	.loc 1 1160 0
	bl	dprint_linux_kernel
.LVL179:
	.loc 1 1161 0
	ldr	x5, [x29,120]
	b	.L260
.LVL180:
.L269:
	.loc 1 1226 0
	adrp	x1, .LC30
	.loc 1 1227 0
	mov	w5, -1
	.loc 1 1226 0
	mov	w0, 1
	add	x1, x1, :lo12:.LC30
	.loc 1 1227 0
	str	x5, [x29,120]
	.loc 1 1226 0
	bl	dprint_linux_kernel
.LVL181:
	ldr	x5, [x29,120]
	.loc 1 1227 0
	b	.L260
.LVL182:
.L318:
	.loc 1 1016 0 discriminator 1
	adrp	x2, .LANCHOR0
	adrp	x1, .LC0
	add	x2, x2, :lo12:.LANCHOR0
	adrp	x4, .LC19
	mov	w5, -1
	mov	w0, 0
	add	x1, x1, :lo12:.LC0
	add	x2, x2, 2080
	mov	w3, 1016
	add	x4, x4, :lo12:.LC19
	str	x5, [x29,120]
	bl	dprint_linux_kernel
.LVL183:
	.loc 1 1016 0 is_stmt 0
	ldr	x5, [x29,120]
	b	.L260
.LVL184:
.L326:
	.loc 1 1088 0 is_stmt 1
	adrp	x1, .LC22
	mov	w0, w27
	add	x1, x1, :lo12:.LC22
	b	.L315
.L320:
	.loc 1 1047 0
	adrp	x1, .LC21
	mov	w0, 0
	add	x1, x1, :lo12:.LC21
	b	.L315
.LVL185:
.L317:
	.loc 1 1015 0 discriminator 1
	adrp	x2, .LANCHOR0
	adrp	x1, .LC0
	add	x2, x2, :lo12:.LANCHOR0
	adrp	x4, .LC18
	mov	w5, -1
	mov	w0, 0
.LVL186:
	add	x1, x1, :lo12:.LC0
	add	x2, x2, 2080
	mov	w3, 1015
	add	x4, x4, :lo12:.LC18
	str	x5, [x29,120]
	bl	dprint_linux_kernel
.LVL187:
	.loc 1 1015 0 is_stmt 0
	ldr	x5, [x29,120]
	b	.L260
.LVL188:
.L264:
	.loc 1 1026 0 is_stmt 1
	adrp	x1, .LC20
	mov	w0, 0
.LVL189:
	add	x1, x1, :lo12:.LC20
	b	.L315
	.cfi_endproc
.LFE2140:
	.size	HEVCHAL_StartDec, .-HEVCHAL_StartDec
	.section	.rodata
	.align	3
.LANCHOR0 = . + 0
	.type	s_InitValue, %object
	.size	s_InitValue, 1920
s_InitValue:
	.word	-1
	.word	-1
	.word	-1
	.word	-1
	.word	-1
	.word	-1
	.word	-1
	.word	-1
	.word	-1
	.word	-1
	.word	-1
	.word	-1
	.word	-1
	.word	-1
	.word	-1
	.word	-1
	.word	153
	.word	200
	.word	139
	.word	141
	.word	157
	.word	154
	.word	-1
	.word	-1
	.word	-1
	.word	-1
	.word	184
	.word	-1
	.word	-1
	.word	-1
	.word	184
	.word	63
	.word	94
	.word	138
	.word	182
	.word	154
	.word	111
	.word	141
	.word	154
	.word	154
	.word	139
	.word	139
	.word	138
	.word	153
	.word	136
	.word	167
	.word	152
	.word	152
	.word	110
	.word	110
	.word	124
	.word	125
	.word	140
	.word	153
	.word	125
	.word	127
	.word	140
	.word	109
	.word	111
	.word	143
	.word	127
	.word	111
	.word	79
	.word	108
	.word	123
	.word	63
	.word	110
	.word	110
	.word	124
	.word	125
	.word	140
	.word	153
	.word	125
	.word	127
	.word	140
	.word	109
	.word	111
	.word	143
	.word	127
	.word	111
	.word	79
	.word	108
	.word	123
	.word	63
	.word	91
	.word	171
	.word	134
	.word	141
	.word	140
	.word	92
	.word	137
	.word	138
	.word	140
	.word	152
	.word	138
	.word	139
	.word	153
	.word	74
	.word	149
	.word	92
	.word	139
	.word	107
	.word	122
	.word	152
	.word	140
	.word	179
	.word	166
	.word	182
	.word	140
	.word	227
	.word	122
	.word	197
	.word	111
	.word	111
	.word	125
	.word	110
	.word	110
	.word	94
	.word	124
	.word	108
	.word	124
	.word	107
	.word	125
	.word	141
	.word	179
	.word	153
	.word	125
	.word	107
	.word	125
	.word	141
	.word	179
	.word	153
	.word	125
	.word	107
	.word	125
	.word	141
	.word	179
	.word	153
	.word	125
	.word	140
	.word	139
	.word	182
	.word	182
	.word	152
	.word	136
	.word	152
	.word	136
	.word	153
	.word	136
	.word	139
	.word	111
	.word	136
	.word	139
	.word	111
	.word	-1
	.word	153
	.word	138
	.word	138
	.word	-1
	.word	-1
	.word	79
	.word	110
	.word	122
	.word	95
	.word	79
	.word	63
	.word	31
	.word	31
	.word	153
	.word	153
	.word	168
	.word	140
	.word	198
	.word	-1
	.word	-1
	.word	-1
	.word	153
	.word	185
	.word	107
	.word	139
	.word	126
	.word	154
	.word	197
	.word	185
	.word	201
	.word	149
	.word	154
	.word	139
	.word	154
	.word	154
	.word	154
	.word	152
	.word	149
	.word	107
	.word	167
	.word	154
	.word	153
	.word	111
	.word	154
	.word	154
	.word	139
	.word	139
	.word	107
	.word	167
	.word	91
	.word	122
	.word	107
	.word	167
	.word	125
	.word	110
	.word	94
	.word	110
	.word	95
	.word	79
	.word	125
	.word	111
	.word	110
	.word	78
	.word	110
	.word	111
	.word	111
	.word	95
	.word	94
	.word	108
	.word	123
	.word	108
	.word	125
	.word	110
	.word	94
	.word	110
	.word	95
	.word	79
	.word	125
	.word	111
	.word	110
	.word	78
	.word	110
	.word	111
	.word	111
	.word	95
	.word	94
	.word	108
	.word	123
	.word	108
	.word	121
	.word	140
	.word	61
	.word	154
	.word	154
	.word	196
	.word	196
	.word	167
	.word	154
	.word	152
	.word	167
	.word	182
	.word	182
	.word	134
	.word	149
	.word	136
	.word	153
	.word	121
	.word	136
	.word	137
	.word	169
	.word	194
	.word	166
	.word	167
	.word	154
	.word	167
	.word	137
	.word	182
	.word	155
	.word	154
	.word	139
	.word	153
	.word	139
	.word	123
	.word	123
	.word	63
	.word	153
	.word	166
	.word	183
	.word	140
	.word	136
	.word	153
	.word	154
	.word	166
	.word	183
	.word	140
	.word	136
	.word	153
	.word	154
	.word	166
	.word	183
	.word	140
	.word	136
	.word	153
	.word	154
	.word	170
	.word	153
	.word	123
	.word	123
	.word	107
	.word	121
	.word	107
	.word	121
	.word	167
	.word	151
	.word	183
	.word	140
	.word	151
	.word	183
	.word	140
	.word	-1
	.word	124
	.word	138
	.word	94
	.word	-1
	.word	-1
	.word	79
	.word	154
	.word	137
	.word	95
	.word	79
	.word	63
	.word	31
	.word	31
	.word	153
	.word	153
	.word	168
	.word	169
	.word	198
	.word	-1
	.word	-1
	.word	-1
	.word	153
	.word	160
	.word	107
	.word	139
	.word	126
	.word	154
	.word	197
	.word	185
	.word	201
	.word	134
	.word	154
	.word	139
	.word	154
	.word	154
	.word	183
	.word	152
	.word	149
	.word	92
	.word	167
	.word	154
	.word	153
	.word	111
	.word	154
	.word	154
	.word	139
	.word	139
	.word	107
	.word	167
	.word	91
	.word	107
	.word	107
	.word	167
	.word	125
	.word	110
	.word	124
	.word	110
	.word	95
	.word	94
	.word	125
	.word	111
	.word	111
	.word	79
	.word	125
	.word	126
	.word	111
	.word	111
	.word	79
	.word	108
	.word	123
	.word	93
	.word	125
	.word	110
	.word	124
	.word	110
	.word	95
	.word	94
	.word	125
	.word	111
	.word	111
	.word	79
	.word	125
	.word	126
	.word	111
	.word	111
	.word	79
	.word	108
	.word	123
	.word	93
	.word	121
	.word	140
	.word	61
	.word	154
	.word	154
	.word	196
	.word	167
	.word	167
	.word	154
	.word	152
	.word	167
	.word	182
	.word	182
	.word	134
	.word	149
	.word	136
	.word	153
	.word	121
	.word	136
	.word	122
	.word	169
	.word	208
	.word	166
	.word	167
	.word	154
	.word	152
	.word	167
	.word	182
	.word	170
	.word	154
	.word	139
	.word	153
	.word	139
	.word	123
	.word	123
	.word	63
	.word	124
	.word	166
	.word	183
	.word	140
	.word	136
	.word	153
	.word	154
	.word	166
	.word	183
	.word	140
	.word	136
	.word	153
	.word	154
	.word	166
	.word	183
	.word	140
	.word	136
	.word	153
	.word	154
	.word	170
	.word	153
	.word	138
	.word	138
	.word	122
	.word	121
	.word	122
	.word	121
	.word	167
	.word	151
	.word	183
	.word	140
	.word	151
	.word	183
	.word	140
	.word	-1
	.word	224
	.word	167
	.word	122
	.word	-1
	.word	-1
	.type	__func__.37327, %object
	.size	__func__.37327, 18
__func__.37327:
	.string	"HEVCWriteCabacTab"
	.zero	6
	.type	__func__.37348, %object
	.size	__func__.37348, 22
__func__.37348:
	.string	"HEVCHAL_CutSliceChain"
	.zero	2
	.type	__func__.37367, %object
	.size	__func__.37367, 19
__func__.37367:
	.string	"HEVC_WriteTileInfo"
	.zero	5
	.type	__func__.37393, %object
	.size	__func__.37393, 18
__func__.37393:
	.string	"HEVCHAL_SetPicMsg"
	.zero	6
	.type	__func__.37429, %object
	.size	__func__.37429, 20
__func__.37429:
	.string	"HEVCHAL_SetSliceMsg"
	.zero	4
	.type	s_SliceTypeForPMV, %object
	.size	s_SliceTypeForPMV, 12
s_SliceTypeForPMV:
	.word	2
	.word	1
	.word	0
	.zero	4
	.type	__func__.37460, %object
	.size	__func__.37460, 18
__func__.37460:
	.string	"HEVCHAL_CfgVdmReg"
	.zero	6
	.type	__func__.37486, %object
	.size	__func__.37486, 17
__func__.37486:
	.string	"HEVCHAL_StartDec"
	.section	.rodata.str1.8,"aMS",%progbits,1
	.align	3
.LC0:
	.string	"%s %d: %s\n"
	.zero	5
.LC1:
	.string	"can not map mn virtual address!\n"
	.zero	7
.LC2:
	.string	"HEVCWriteCabacTab return error.\n"
	.zero	7
.LC3:
	.string	"can not map slice msg virtual address!\n"
.LC4:
	.string	"qmatrix[%d] = 0x%x\n"
	.zero	4
.LC5:
	.string	"picmsg Dxx addr 0x%x = 0x%x\n"
	.zero	3
.LC6:
	.string	"can not map slice segment info virtual address!\n"
	.zero	7
.LC7:
	.string	"TileId: 0x%x\n"
	.zero	2
.LC8:
	.string	"can not map down msg virtual address!\n"
	.zero	1
.LC9:
	.string	"pic msg burst0:\n"
	.zero	7
.LC10:
	.string	"picmsg D[0] addr 0x%x = 0x%x\n"
	.zero	2
.LC11:
	.string	"HEVC_WriteTileInfo return error.\n"
	.zero	6
.LC12:
	.string	"HEVCHAL_SetSliceMsg can not map slice msg virtual address!\n"
	.zero	4
.LC13:
	.string	"%s FATAL: i=0, valid_bitlen=0\n"
	.zero	1
.LC14:
	.string	"slicemsg D[%d] addr 0x%x = 0x%x\n"
	.zero	7
.LC15:
	.string	"%s: VdhId(%d) > %d\n"
	.zero	4
.LC16:
	.string	"AVM_ADDR = 0x%x\n"
	.zero	7
.LC17:
	.string	"VREG_FF_APT_EN = 0x%x\n"
	.zero	1
.LC18:
	.string	"pParam is null\n"
.LC19:
	.string	"FATAL: ApcSize > 16\n"
	.zero	3
.LC20:
	.string	"%s vdm register virtual address not mapped, reset failed!\n"
	.zero	5
.LC21:
	.string	"%s pFirstSlice = NULL!\n"
.LC22:
	.string	"%s 0: set slice msg failed!\n"
	.zero	3
.LC23:
	.string	"%s: i = %d, pSlicePara = NULL!\n"
.LC24:
	.string	"SliceSegmentTileAddress %d < pre_end_ctb_in_slice_tile %d\n"
	.zero	5
.LC25:
	.string	"%s pTargetSlicePara is NULL!\n"
	.zero	2
.LC26:
	.string	"%s end_ctb_in_slice_tile(%d) < 0\n"
	.zero	6
.LC27:
	.string	"end_ctb_in_slice_raster(%d)/end_ctb_in_slice_tile(%d) > pic_max_ctb(%d)\n"
	.zero	7
.LC28:
	.string	"SliceSegmentTileAddress %d > end_ctb_in_slice_tile %d\n"
	.zero	1
.LC29:
	.string	"%s 1: set slice msg failed!\n"
	.zero	3
.LC30:
	.string	"No slice to dec, add up msg report.\n"
	.bss
	.align	3
.LANCHOR1 = . + 0
	.type	s_CabacMN, %object
	.size	s_CabacMN, 928
s_CabacMN:
	.zero	928
	.text
.Letext0:
	.file 2 "/home/jenkins/slaves-220/workspace/chipset_component_VV_B100_Open_Source/component_code/vendor/huawei/extra/build/build_script/austin_kernel_release/kernel/drivers/vcodec/hi_vcodec/vdec/include/hi_type.h"
	.file 3 "/home/jenkins/slaves-220/workspace/chipset_component_VV_B100_Open_Source/component_code/vendor/huawei/extra/build/build_script/austin_kernel_release/kernel/drivers/vcodec/hi_vcodec/vdec/vfmw/vfmw_v4.0/vfmw.h"
	.file 4 "/home/jenkins/slaves-220/workspace/chipset_component_VV_B100_Open_Source/component_code/vendor/huawei/extra/build/build_script/austin_kernel_release/kernel/include/uapi/asm-generic/int-ll64.h"
	.file 5 "/home/jenkins/slaves-220/workspace/chipset_component_VV_B100_Open_Source/component_code/vendor/huawei/extra/build/build_script/austin_kernel_release/kernel/include/asm-generic/int-ll64.h"
	.file 6 "/home/jenkins/slaves-220/workspace/chipset_component_VV_B100_Open_Source/component_code/vendor/huawei/extra/build/build_script/austin_kernel_release/kernel/include/uapi/asm-generic/posix_types.h"
	.file 7 "/home/jenkins/slaves-220/workspace/chipset_component_VV_B100_Open_Source/component_code/vendor/huawei/extra/build/build_script/austin_kernel_release/kernel/include/linux/export.h"
	.file 8 "/home/jenkins/slaves-220/workspace/chipset_component_VV_B100_Open_Source/component_code/vendor/huawei/extra/build/build_script/austin_kernel_release/kernel/include/linux/types.h"
	.file 9 "/home/jenkins/slaves-220/workspace/chipset_component_VV_B100_Open_Source/component_code/vendor/huawei/extra/build/build_script/austin_kernel_release/kernel/include/linux/thread_info.h"
	.file 10 "/home/jenkins/slaves-220/workspace/chipset_component_VV_B100_Open_Source/component_code/vendor/huawei/extra/build/build_script/austin_kernel_release/kernel/include/uapi/linux/time.h"
	.file 11 "/home/jenkins/slaves-220/workspace/chipset_component_VV_B100_Open_Source/component_code/vendor/huawei/extra/build/build_script/austin_kernel_release/kernel/arch/arm64/include/asm/compat.h"
	.file 12 "/home/jenkins/slaves-220/workspace/chipset_component_VV_B100_Open_Source/component_code/vendor/huawei/extra/build/build_script/austin_kernel_release/kernel/include/uapi/asm-generic/poll.h"
	.file 13 "/home/jenkins/slaves-220/workspace/chipset_component_VV_B100_Open_Source/component_code/vendor/huawei/extra/build/build_script/austin_kernel_release/kernel/include/linux/sched.h"
	.file 14 "/home/jenkins/slaves-220/workspace/chipset_component_VV_B100_Open_Source/component_code/vendor/huawei/extra/build/build_script/austin_kernel_release/kernel/arch/arm64/include/uapi/asm/ptrace.h"
	.file 15 "/home/jenkins/slaves-220/workspace/chipset_component_VV_B100_Open_Source/component_code/vendor/huawei/extra/build/build_script/austin_kernel_release/kernel/arch/arm64/include/asm/ptrace.h"
	.file 16 "/home/jenkins/slaves-220/workspace/chipset_component_VV_B100_Open_Source/component_code/vendor/huawei/extra/build/build_script/austin_kernel_release/kernel/arch/arm64/include/asm/spinlock_types.h"
	.file 17 "/home/jenkins/slaves-220/workspace/chipset_component_VV_B100_Open_Source/component_code/vendor/huawei/extra/build/build_script/austin_kernel_release/kernel/include/linux/spinlock_types.h"
	.file 18 "/home/jenkins/slaves-220/workspace/chipset_component_VV_B100_Open_Source/component_code/vendor/huawei/extra/build/build_script/austin_kernel_release/kernel/include/linux/rwlock_types.h"
	.file 19 "/home/jenkins/slaves-220/workspace/chipset_component_VV_B100_Open_Source/component_code/vendor/huawei/extra/build/build_script/austin_kernel_release/kernel/arch/arm64/include/asm/fpsimd.h"
	.file 20 "/home/jenkins/slaves-220/workspace/chipset_component_VV_B100_Open_Source/component_code/vendor/huawei/extra/build/build_script/austin_kernel_release/kernel/arch/arm64/include/asm/hw_breakpoint.h"
	.file 21 "/home/jenkins/slaves-220/workspace/chipset_component_VV_B100_Open_Source/component_code/vendor/huawei/extra/build/build_script/austin_kernel_release/kernel/arch/arm64/include/asm/processor.h"
	.file 22 "/home/jenkins/slaves-220/workspace/chipset_component_VV_B100_Open_Source/component_code/vendor/huawei/extra/build/build_script/austin_kernel_release/kernel/include/linux/perf_event.h"
	.file 23 "/home/jenkins/slaves-220/workspace/chipset_component_VV_B100_Open_Source/component_code/vendor/huawei/extra/build/build_script/austin_kernel_release/kernel/include/asm-generic/atomic-long.h"
	.file 24 "/home/jenkins/slaves-220/workspace/chipset_component_VV_B100_Open_Source/component_code/vendor/huawei/extra/build/build_script/austin_kernel_release/kernel/include/linux/wait.h"
	.file 25 "/home/jenkins/slaves-220/workspace/chipset_component_VV_B100_Open_Source/component_code/vendor/huawei/extra/build/build_script/austin_kernel_release/kernel/include/linux/seqlock.h"
	.file 26 "/home/jenkins/slaves-220/workspace/chipset_component_VV_B100_Open_Source/component_code/vendor/huawei/extra/build/build_script/austin_kernel_release/kernel/include/linux/nodemask.h"
	.file 27 "/home/jenkins/slaves-220/workspace/chipset_component_VV_B100_Open_Source/component_code/vendor/huawei/extra/build/build_script/austin_kernel_release/kernel/include/linux/rbtree.h"
	.file 28 "/home/jenkins/slaves-220/workspace/chipset_component_VV_B100_Open_Source/component_code/vendor/huawei/extra/build/build_script/austin_kernel_release/kernel/include/linux/osq_lock.h"
	.file 29 "/home/jenkins/slaves-220/workspace/chipset_component_VV_B100_Open_Source/component_code/vendor/huawei/extra/build/build_script/austin_kernel_release/kernel/include/linux/rwsem.h"
	.file 30 "/home/jenkins/slaves-220/workspace/chipset_component_VV_B100_Open_Source/component_code/vendor/huawei/extra/build/build_script/austin_kernel_release/kernel/include/linux/completion.h"
	.file 31 "/home/jenkins/slaves-220/workspace/chipset_component_VV_B100_Open_Source/component_code/vendor/huawei/extra/build/build_script/austin_kernel_release/kernel/include/linux/cpumask.h"
	.file 32 "/home/jenkins/slaves-220/workspace/chipset_component_VV_B100_Open_Source/component_code/vendor/huawei/extra/build/build_script/austin_kernel_release/kernel/include/linux/mm_types.h"
	.file 33 "/home/jenkins/slaves-220/workspace/chipset_component_VV_B100_Open_Source/component_code/vendor/huawei/extra/build/build_script/austin_kernel_release/kernel/include/linux/lockdep.h"
	.file 34 "/home/jenkins/slaves-220/workspace/chipset_component_VV_B100_Open_Source/component_code/vendor/huawei/extra/build/build_script/austin_kernel_release/kernel/include/linux/uprobes.h"
	.file 35 "/home/jenkins/slaves-220/workspace/chipset_component_VV_B100_Open_Source/component_code/vendor/huawei/extra/build/build_script/austin_kernel_release/kernel/arch/arm64/include/asm/pgtable-types.h"
	.file 36 "/home/jenkins/slaves-220/workspace/chipset_component_VV_B100_Open_Source/component_code/vendor/huawei/extra/build/build_script/austin_kernel_release/kernel/arch/arm64/include/asm/mmu.h"
	.file 37 "/home/jenkins/slaves-220/workspace/chipset_component_VV_B100_Open_Source/component_code/vendor/huawei/extra/build/build_script/austin_kernel_release/kernel/include/linux/fs.h"
	.file 38 "/home/jenkins/slaves-220/workspace/chipset_component_VV_B100_Open_Source/component_code/vendor/huawei/extra/build/build_script/austin_kernel_release/kernel/include/linux/mm.h"
	.file 39 "/home/jenkins/slaves-220/workspace/chipset_component_VV_B100_Open_Source/component_code/vendor/huawei/extra/build/build_script/austin_kernel_release/kernel/include/linux/mmzone.h"
	.file 40 "/home/jenkins/slaves-220/workspace/chipset_component_VV_B100_Open_Source/component_code/vendor/huawei/extra/build/build_script/austin_kernel_release/kernel/include/linux/mutex.h"
	.file 41 "/home/jenkins/slaves-220/workspace/chipset_component_VV_B100_Open_Source/component_code/vendor/huawei/extra/build/build_script/austin_kernel_release/kernel/include/linux/ktime.h"
	.file 42 "/home/jenkins/slaves-220/workspace/chipset_component_VV_B100_Open_Source/component_code/vendor/huawei/extra/build/build_script/austin_kernel_release/kernel/include/linux/timer.h"
	.file 43 "/home/jenkins/slaves-220/workspace/chipset_component_VV_B100_Open_Source/component_code/vendor/huawei/extra/build/build_script/austin_kernel_release/kernel/include/linux/workqueue.h"
	.file 44 "/home/jenkins/slaves-220/workspace/chipset_component_VV_B100_Open_Source/component_code/vendor/huawei/extra/build/build_script/austin_kernel_release/kernel/include/linux/llist.h"
	.file 45 "/home/jenkins/slaves-220/workspace/chipset_component_VV_B100_Open_Source/component_code/vendor/huawei/extra/build/build_script/austin_kernel_release/kernel/include/linux/percpu.h"
	.file 46 "/home/jenkins/slaves-220/workspace/chipset_component_VV_B100_Open_Source/component_code/vendor/huawei/extra/build/build_script/austin_kernel_release/kernel/include/linux/shrinker.h"
	.file 47 "/home/jenkins/slaves-220/workspace/chipset_component_VV_B100_Open_Source/component_code/vendor/huawei/extra/build/build_script/austin_kernel_release/kernel/include/uapi/linux/resource.h"
	.file 48 "/home/jenkins/slaves-220/workspace/chipset_component_VV_B100_Open_Source/component_code/vendor/huawei/extra/build/build_script/austin_kernel_release/kernel/include/linux/vm_event_item.h"
	.file 49 "/home/jenkins/slaves-220/workspace/chipset_component_VV_B100_Open_Source/component_code/vendor/huawei/extra/build/build_script/austin_kernel_release/kernel/include/linux/vmstat.h"
	.file 50 "/home/jenkins/slaves-220/workspace/chipset_component_VV_B100_Open_Source/component_code/vendor/huawei/extra/build/build_script/austin_kernel_release/kernel/include/linux/capability.h"
	.file 51 "/home/jenkins/slaves-220/workspace/chipset_component_VV_B100_Open_Source/component_code/vendor/huawei/extra/build/build_script/austin_kernel_release/kernel/include/linux/plist.h"
	.file 52 "/home/jenkins/slaves-220/workspace/chipset_component_VV_B100_Open_Source/component_code/vendor/huawei/extra/build/build_script/austin_kernel_release/kernel/include/asm-generic/cputime_jiffies.h"
	.file 53 "/home/jenkins/slaves-220/workspace/chipset_component_VV_B100_Open_Source/component_code/vendor/huawei/extra/build/build_script/austin_kernel_release/kernel/include/linux/uidgid.h"
	.file 54 "/home/jenkins/slaves-220/workspace/chipset_component_VV_B100_Open_Source/component_code/vendor/huawei/extra/build/build_script/austin_kernel_release/kernel/include/linux/sem.h"
	.file 55 "/home/jenkins/slaves-220/workspace/chipset_component_VV_B100_Open_Source/component_code/vendor/huawei/extra/build/build_script/austin_kernel_release/kernel/include/linux/shm.h"
	.file 56 "/home/jenkins/slaves-220/workspace/chipset_component_VV_B100_Open_Source/component_code/vendor/huawei/extra/build/build_script/austin_kernel_release/kernel/include/uapi/asm-generic/signal.h"
	.file 57 "/home/jenkins/slaves-220/workspace/chipset_component_VV_B100_Open_Source/component_code/vendor/huawei/extra/build/build_script/austin_kernel_release/kernel/include/uapi/asm-generic/signal-defs.h"
	.file 58 "/home/jenkins/slaves-220/workspace/chipset_component_VV_B100_Open_Source/component_code/vendor/huawei/extra/build/build_script/austin_kernel_release/kernel/include/uapi/asm-generic/siginfo.h"
	.file 59 "/home/jenkins/slaves-220/workspace/chipset_component_VV_B100_Open_Source/component_code/vendor/huawei/extra/build/build_script/austin_kernel_release/kernel/include/linux/signal.h"
	.file 60 "/home/jenkins/slaves-220/workspace/chipset_component_VV_B100_Open_Source/component_code/vendor/huawei/extra/build/build_script/austin_kernel_release/kernel/include/linux/pid.h"
	.file 61 "/home/jenkins/slaves-220/workspace/chipset_component_VV_B100_Open_Source/component_code/vendor/huawei/extra/build/build_script/austin_kernel_release/kernel/include/linux/pid_namespace.h"
	.file 62 "/home/jenkins/slaves-220/workspace/chipset_component_VV_B100_Open_Source/component_code/vendor/huawei/extra/build/build_script/austin_kernel_release/kernel/include/linux/percpu_counter.h"
	.file 63 "/home/jenkins/slaves-220/workspace/chipset_component_VV_B100_Open_Source/component_code/vendor/huawei/extra/build/build_script/austin_kernel_release/kernel/include/linux/seccomp.h"
	.file 64 "/home/jenkins/slaves-220/workspace/chipset_component_VV_B100_Open_Source/component_code/vendor/huawei/extra/build/build_script/austin_kernel_release/kernel/include/linux/timerqueue.h"
	.file 65 "/home/jenkins/slaves-220/workspace/chipset_component_VV_B100_Open_Source/component_code/vendor/huawei/extra/build/build_script/austin_kernel_release/kernel/include/linux/hrtimer.h"
	.file 66 "/home/jenkins/slaves-220/workspace/chipset_component_VV_B100_Open_Source/component_code/vendor/huawei/extra/build/build_script/austin_kernel_release/kernel/include/linux/task_io_accounting.h"
	.file 67 "/home/jenkins/slaves-220/workspace/chipset_component_VV_B100_Open_Source/component_code/vendor/huawei/extra/build/build_script/austin_kernel_release/kernel/include/linux/nsproxy.h"
	.file 68 "/home/jenkins/slaves-220/workspace/chipset_component_VV_B100_Open_Source/component_code/vendor/huawei/extra/build/build_script/austin_kernel_release/kernel/include/linux/assoc_array.h"
	.file 69 "/home/jenkins/slaves-220/workspace/chipset_component_VV_B100_Open_Source/component_code/vendor/huawei/extra/build/build_script/austin_kernel_release/kernel/include/linux/key.h"
	.file 70 "/home/jenkins/slaves-220/workspace/chipset_component_VV_B100_Open_Source/component_code/vendor/huawei/extra/build/build_script/austin_kernel_release/kernel/include/linux/cred.h"
	.file 71 "/home/jenkins/slaves-220/workspace/chipset_component_VV_B100_Open_Source/component_code/vendor/huawei/extra/build/build_script/austin_kernel_release/kernel/include/linux/idr.h"
	.file 72 "/home/jenkins/slaves-220/workspace/chipset_component_VV_B100_Open_Source/component_code/vendor/huawei/extra/build/build_script/austin_kernel_release/kernel/include/linux/percpu-refcount.h"
	.file 73 "/home/jenkins/slaves-220/workspace/chipset_component_VV_B100_Open_Source/component_code/vendor/huawei/extra/build/build_script/austin_kernel_release/kernel/include/linux/cgroup-defs.h"
	.file 74 "/home/jenkins/slaves-220/workspace/chipset_component_VV_B100_Open_Source/component_code/vendor/huawei/extra/build/build_script/austin_kernel_release/kernel/include/linux/kernfs.h"
	.file 75 "/home/jenkins/slaves-220/workspace/chipset_component_VV_B100_Open_Source/component_code/vendor/huawei/extra/build/build_script/austin_kernel_release/kernel/include/linux/seq_file.h"
	.file 76 "/home/jenkins/slaves-220/workspace/chipset_component_VV_B100_Open_Source/component_code/vendor/huawei/extra/build/build_script/austin_kernel_release/kernel/include/uapi/linux/taskstats.h"
	.file 77 "/home/jenkins/slaves-220/workspace/chipset_component_VV_B100_Open_Source/component_code/vendor/huawei/extra/build/build_script/austin_kernel_release/kernel/include/linux/compat.h"
	.file 78 "/home/jenkins/slaves-220/workspace/chipset_component_VV_B100_Open_Source/component_code/vendor/huawei/extra/build/build_script/austin_kernel_release/kernel/include/linux/kref.h"
	.file 79 "/home/jenkins/slaves-220/workspace/chipset_component_VV_B100_Open_Source/component_code/vendor/huawei/extra/build/build_script/austin_kernel_release/kernel/include/linux/ns_common.h"
	.file 80 "/home/jenkins/slaves-220/workspace/chipset_component_VV_B100_Open_Source/component_code/vendor/huawei/extra/build/build_script/austin_kernel_release/kernel/include/linux/dcache.h"
	.file 81 "/home/jenkins/slaves-220/workspace/chipset_component_VV_B100_Open_Source/component_code/vendor/huawei/extra/build/build_script/austin_kernel_release/kernel/include/linux/stat.h"
	.file 82 "/home/jenkins/slaves-220/workspace/chipset_component_VV_B100_Open_Source/component_code/vendor/huawei/extra/build/build_script/austin_kernel_release/kernel/include/uapi/linux/elf.h"
	.file 83 "/home/jenkins/slaves-220/workspace/chipset_component_VV_B100_Open_Source/component_code/vendor/huawei/extra/build/build_script/austin_kernel_release/kernel/include/linux/kobject_ns.h"
	.file 84 "/home/jenkins/slaves-220/workspace/chipset_component_VV_B100_Open_Source/component_code/vendor/huawei/extra/build/build_script/austin_kernel_release/kernel/include/linux/sysfs.h"
	.file 85 "/home/jenkins/slaves-220/workspace/chipset_component_VV_B100_Open_Source/component_code/vendor/huawei/extra/build/build_script/austin_kernel_release/kernel/include/linux/kobject.h"
	.file 86 "/home/jenkins/slaves-220/workspace/chipset_component_VV_B100_Open_Source/component_code/vendor/huawei/extra/build/build_script/austin_kernel_release/kernel/include/linux/moduleparam.h"
	.file 87 "/home/jenkins/slaves-220/workspace/chipset_component_VV_B100_Open_Source/component_code/vendor/huawei/extra/build/build_script/austin_kernel_release/kernel/include/linux/jump_label.h"
	.file 88 "/home/jenkins/slaves-220/workspace/chipset_component_VV_B100_Open_Source/component_code/vendor/huawei/extra/build/build_script/austin_kernel_release/kernel/include/asm-generic/module.h"
	.file 89 "/home/jenkins/slaves-220/workspace/chipset_component_VV_B100_Open_Source/component_code/vendor/huawei/extra/build/build_script/austin_kernel_release/kernel/include/linux/module.h"
	.file 90 "/home/jenkins/slaves-220/workspace/chipset_component_VV_B100_Open_Source/component_code/vendor/huawei/extra/build/build_script/austin_kernel_release/kernel/arch/arm64/include/asm/uaccess.h"
	.file 91 "/home/jenkins/slaves-220/workspace/chipset_component_VV_B100_Open_Source/component_code/vendor/huawei/extra/build/build_script/austin_kernel_release/kernel/include/linux/tracepoint.h"
	.file 92 "/home/jenkins/slaves-220/workspace/chipset_component_VV_B100_Open_Source/component_code/vendor/huawei/extra/build/build_script/austin_kernel_release/kernel/include/linux/ftrace_event.h"
	.file 93 "/home/jenkins/slaves-220/workspace/chipset_component_VV_B100_Open_Source/component_code/vendor/huawei/extra/build/build_script/austin_kernel_release/kernel/include/linux/quota.h"
	.file 94 "/home/jenkins/slaves-220/workspace/chipset_component_VV_B100_Open_Source/component_code/vendor/huawei/extra/build/build_script/austin_kernel_release/kernel/include/linux/projid.h"
	.file 95 "/home/jenkins/slaves-220/workspace/chipset_component_VV_B100_Open_Source/component_code/vendor/huawei/extra/build/build_script/austin_kernel_release/kernel/include/uapi/linux/quota.h"
	.file 96 "/home/jenkins/slaves-220/workspace/chipset_component_VV_B100_Open_Source/component_code/vendor/huawei/extra/build/build_script/austin_kernel_release/kernel/include/linux/path.h"
	.file 97 "/home/jenkins/slaves-220/workspace/chipset_component_VV_B100_Open_Source/component_code/vendor/huawei/extra/build/build_script/austin_kernel_release/kernel/include/linux/list_bl.h"
	.file 98 "/home/jenkins/slaves-220/workspace/chipset_component_VV_B100_Open_Source/component_code/vendor/huawei/extra/build/build_script/austin_kernel_release/kernel/include/linux/lockref.h"
	.file 99 "/home/jenkins/slaves-220/workspace/chipset_component_VV_B100_Open_Source/component_code/vendor/huawei/extra/build/build_script/austin_kernel_release/kernel/include/linux/list_lru.h"
	.file 100 "/home/jenkins/slaves-220/workspace/chipset_component_VV_B100_Open_Source/component_code/vendor/huawei/extra/build/build_script/austin_kernel_release/kernel/include/linux/radix-tree.h"
	.file 101 "/home/jenkins/slaves-220/workspace/chipset_component_VV_B100_Open_Source/component_code/vendor/huawei/extra/build/build_script/austin_kernel_release/kernel/include/uapi/linux/fiemap.h"
	.file 102 "/home/jenkins/slaves-220/workspace/chipset_component_VV_B100_Open_Source/component_code/vendor/huawei/extra/build/build_script/austin_kernel_release/kernel/include/linux/migrate_mode.h"
	.file 103 "/home/jenkins/slaves-220/workspace/chipset_component_VV_B100_Open_Source/component_code/vendor/huawei/extra/build/build_script/austin_kernel_release/kernel/include/linux/blk_types.h"
	.file 104 "/home/jenkins/slaves-220/workspace/chipset_component_VV_B100_Open_Source/component_code/vendor/huawei/extra/build/build_script/austin_kernel_release/kernel/include/linux/uio.h"
	.file 105 "/home/jenkins/slaves-220/workspace/chipset_component_VV_B100_Open_Source/component_code/vendor/huawei/extra/build/build_script/austin_kernel_release/kernel/include/linux/nfs_fs_i.h"
	.file 106 "/home/jenkins/slaves-220/workspace/chipset_component_VV_B100_Open_Source/component_code/vendor/huawei/extra/build/build_script/austin_kernel_release/kernel/include/linux/poll.h"
	.file 107 "/home/jenkins/slaves-220/workspace/chipset_component_VV_B100_Open_Source/component_code/vendor/huawei/extra/build/build_script/austin_kernel_release/kernel/include/linux/seq_buf.h"
	.file 108 "/home/jenkins/slaves-220/workspace/chipset_component_VV_B100_Open_Source/component_code/vendor/huawei/extra/build/build_script/austin_kernel_release/kernel/include/linux/trace_seq.h"
	.file 109 "/home/jenkins/slaves-220/workspace/chipset_component_VV_B100_Open_Source/component_code/vendor/huawei/extra/build/build_script/austin_kernel_release/kernel/include/uapi/linux/perf_event.h"
	.file 110 "/home/jenkins/slaves-220/workspace/chipset_component_VV_B100_Open_Source/component_code/vendor/huawei/extra/build/build_script/austin_kernel_release/kernel/include/asm-generic/local.h"
	.file 111 "/home/jenkins/slaves-220/workspace/chipset_component_VV_B100_Open_Source/component_code/vendor/huawei/extra/build/build_script/austin_kernel_release/kernel/include/asm-generic/local64.h"
	.file 112 "/home/jenkins/slaves-220/workspace/chipset_component_VV_B100_Open_Source/component_code/vendor/huawei/extra/build/build_script/austin_kernel_release/kernel/include/uapi/linux/uio.h"
	.file 113 "/home/jenkins/slaves-220/workspace/chipset_component_VV_B100_Open_Source/component_code/vendor/huawei/extra/build/build_script/austin_kernel_release/kernel/include/linux/ftrace.h"
	.file 114 "/home/jenkins/slaves-220/workspace/chipset_component_VV_B100_Open_Source/component_code/vendor/huawei/extra/build/build_script/austin_kernel_release/kernel/include/linux/klist.h"
	.file 115 "/home/jenkins/slaves-220/workspace/chipset_component_VV_B100_Open_Source/component_code/vendor/huawei/extra/build/build_script/austin_kernel_release/kernel/include/linux/pinctrl/devinfo.h"
	.file 116 "/home/jenkins/slaves-220/workspace/chipset_component_VV_B100_Open_Source/component_code/vendor/huawei/extra/build/build_script/austin_kernel_release/kernel/include/linux/pm.h"
	.file 117 "/home/jenkins/slaves-220/workspace/chipset_component_VV_B100_Open_Source/component_code/vendor/huawei/extra/build/build_script/austin_kernel_release/kernel/include/linux/device.h"
	.file 118 "/home/jenkins/slaves-220/workspace/chipset_component_VV_B100_Open_Source/component_code/vendor/huawei/extra/build/build_script/austin_kernel_release/kernel/include/linux/pm_wakeup.h"
	.file 119 "/home/jenkins/slaves-220/workspace/chipset_component_VV_B100_Open_Source/component_code/vendor/huawei/extra/build/build_script/austin_kernel_release/kernel/arch/arm64/include/asm/device.h"
	.file 120 "/home/jenkins/slaves-220/workspace/chipset_component_VV_B100_Open_Source/component_code/vendor/huawei/extra/build/build_script/austin_kernel_release/kernel/include/linux/irq_work.h"
	.file 121 "/home/jenkins/slaves-220/workspace/chipset_component_VV_B100_Open_Source/component_code/vendor/huawei/extra/build/build_script/austin_kernel_release/kernel/include/linux/jump_label_ratelimit.h"
	.file 122 "/home/jenkins/slaves-220/workspace/chipset_component_VV_B100_Open_Source/component_code/vendor/huawei/extra/build/build_script/austin_kernel_release/kernel/include/linux/perf_regs.h"
	.file 123 "/home/jenkins/slaves-220/workspace/chipset_component_VV_B100_Open_Source/component_code/vendor/huawei/extra/build/build_script/austin_kernel_release/kernel/include/linux/interrupt.h"
	.file 124 "/home/jenkins/slaves-220/workspace/chipset_component_VV_B100_Open_Source/component_code/vendor/huawei/extra/build/build_script/austin_kernel_release/kernel/drivers/vcodec/hi_vcodec/vdec/vfmw/vfmw_v4.0/firmware/common/mem_manage.h"
	.file 125 "/home/jenkins/slaves-220/workspace/chipset_component_VV_B100_Open_Source/component_code/vendor/huawei/extra/build/build_script/austin_kernel_release/kernel/drivers/vcodec/hi_vcodec/vdec/vfmw/vfmw_v4.0/firmware/driver/HiSCDV200/scd_drv.h"
	.file 126 "/home/jenkins/slaves-220/workspace/chipset_component_VV_B100_Open_Source/component_code/vendor/huawei/extra/build/build_script/austin_kernel_release/kernel/drivers/vcodec/hi_vcodec/vdec/vfmw/vfmw_v4.0/firmware/common/decparam.h"
	.file 127 "/home/jenkins/slaves-220/workspace/chipset_component_VV_B100_Open_Source/component_code/vendor/huawei/extra/build/build_script/austin_kernel_release/kernel/drivers/vcodec/hi_vcodec/vdec/vfmw/vfmw_v4.0/firmware/common/vdm_drv.h"
	.file 128 "/home/jenkins/slaves-220/workspace/chipset_component_VV_B100_Open_Source/component_code/vendor/huawei/extra/build/build_script/austin_kernel_release/kernel/drivers/vcodec/hi_vcodec/vdec/vfmw/vfmw_v4.0/firmware/common/vdm_hal.h"
	.file 129 "/home/jenkins/slaves-220/workspace/chipset_component_VV_B100_Open_Source/component_code/vendor/huawei/extra/build/build_script/austin_kernel_release/kernel/drivers/vcodec/hi_vcodec/vdec/vfmw/vfmw_v4.0/firmware/common/public.h"
	.file 130 "/home/jenkins/slaves-220/workspace/chipset_component_VV_B100_Open_Source/component_code/vendor/huawei/extra/build/build_script/austin_kernel_release/kernel/drivers/vcodec/hi_vcodec/vdec/vfmw/vfmw_v4.0/firmware/driver/HiVDHV400R004/vdm_hal_local.h"
	.file 131 "/home/jenkins/slaves-220/workspace/chipset_component_VV_B100_Open_Source/component_code/vendor/huawei/extra/build/build_script/austin_kernel_release/kernel/drivers/vcodec/hi_vcodec/vdec/vfmw/vfmw_v4.0/firmware/common/syn_cmn.h"
	.file 132 "/home/jenkins/slaves-220/workspace/chipset_component_VV_B100_Open_Source/component_code/vendor/huawei/extra/build/build_script/austin_kernel_release/kernel/drivers/vcodec/hi_vcodec/vdec/vfmw/vfmw_v4.0/firmware/common/fsp.h"
	.file 133 "/home/jenkins/slaves-220/workspace/chipset_component_VV_B100_Open_Source/component_code/vendor/huawei/extra/build/build_script/austin_kernel_release/kernel/drivers/vcodec/hi_vcodec/vdec/vfmw/vfmw_v4.0/firmware/common/bitstream.h"
	.file 134 "/home/jenkins/slaves-220/workspace/chipset_component_VV_B100_Open_Source/component_code/vendor/huawei/extra/build/build_script/austin_kernel_release/kernel/drivers/vcodec/hi_vcodec/vdec/vfmw/vfmw_v4.0/firmware/common/syntax/mpeg2.h"
	.file 135 "/home/jenkins/slaves-220/workspace/chipset_component_VV_B100_Open_Source/component_code/vendor/huawei/extra/build/build_script/austin_kernel_release/kernel/drivers/vcodec/hi_vcodec/vdec/vfmw/vfmw_v4.0/firmware/common/syntax/mpeg4.h"
	.file 136 "/home/jenkins/slaves-220/workspace/chipset_component_VV_B100_Open_Source/component_code/vendor/huawei/extra/build/build_script/austin_kernel_release/kernel/drivers/vcodec/hi_vcodec/vdec/vfmw/vfmw_v4.0/firmware/common/syntax/h264.h"
	.file 137 "/home/jenkins/slaves-220/workspace/chipset_component_VV_B100_Open_Source/component_code/vendor/huawei/extra/build/build_script/austin_kernel_release/kernel/drivers/vcodec/hi_vcodec/vdec/vfmw/vfmw_v4.0/firmware/common/syntax/hevc.h"
	.file 138 "/home/jenkins/slaves-220/workspace/chipset_component_VV_B100_Open_Source/component_code/vendor/huawei/extra/build/build_script/austin_kernel_release/kernel/drivers/vcodec/hi_vcodec/vdec/vfmw/vfmw_v4.0/firmware/common/syntax/vc1.h"
	.file 139 "/home/jenkins/slaves-220/workspace/chipset_component_VV_B100_Open_Source/component_code/vendor/huawei/extra/build/build_script/austin_kernel_release/kernel/drivers/vcodec/hi_vcodec/vdec/vfmw/vfmw_v4.0/firmware/common/syntax/real8.h"
	.file 140 "/home/jenkins/slaves-220/workspace/chipset_component_VV_B100_Open_Source/component_code/vendor/huawei/extra/build/build_script/austin_kernel_release/kernel/drivers/vcodec/hi_vcodec/vdec/vfmw/vfmw_v4.0/firmware/common/syntax/real9.h"
	.file 141 "/home/jenkins/slaves-220/workspace/chipset_component_VV_B100_Open_Source/component_code/vendor/huawei/extra/build/build_script/austin_kernel_release/kernel/drivers/vcodec/hi_vcodec/vdec/vfmw/vfmw_v4.0/firmware/common/syntax/divx3.h"
	.file 142 "/home/jenkins/slaves-220/workspace/chipset_component_VV_B100_Open_Source/component_code/vendor/huawei/extra/build/build_script/austin_kernel_release/kernel/drivers/vcodec/hi_vcodec/vdec/vfmw/vfmw_v4.0/firmware/common/syntax/vp6.h"
	.file 143 "/home/jenkins/slaves-220/workspace/chipset_component_VV_B100_Open_Source/component_code/vendor/huawei/extra/build/build_script/austin_kernel_release/kernel/drivers/vcodec/hi_vcodec/vdec/vfmw/vfmw_v4.0/firmware/common/syntax/vp8.h"
	.file 144 "/home/jenkins/slaves-220/workspace/chipset_component_VV_B100_Open_Source/component_code/vendor/huawei/extra/build/build_script/austin_kernel_release/kernel/drivers/vcodec/hi_vcodec/vdec/vfmw/vfmw_v4.0/firmware/common/syntax/syntax.h"
	.file 145 "/home/jenkins/slaves-220/workspace/chipset_component_VV_B100_Open_Source/component_code/vendor/huawei/extra/build/build_script/austin_kernel_release/kernel/drivers/vcodec/hi_vcodec/vdec/vfmw/vfmw_v4.0/firmware/common/vfmw_ctrl.h"
	.file 146 "/home/jenkins/slaves-220/workspace/chipset_component_VV_B100_Open_Source/component_code/vendor/huawei/extra/build/build_script/austin_kernel_release/kernel/drivers/vcodec/hi_vcodec/vdec/vfmw/vfmw_v4.0/firmware/product/HiVCodecV100/sysconfig.h"
	.file 147 "/home/jenkins/slaves-220/workspace/chipset_component_VV_B100_Open_Source/component_code/vendor/huawei/extra/build/build_script/austin_kernel_release/kernel/arch/arm64/include/asm/cachetype.h"
	.file 148 "/home/jenkins/slaves-220/workspace/chipset_component_VV_B100_Open_Source/component_code/vendor/huawei/extra/build/build_script/austin_kernel_release/kernel/include/linux/printk.h"
	.file 149 "/home/jenkins/slaves-220/workspace/chipset_component_VV_B100_Open_Source/component_code/vendor/huawei/extra/build/build_script/austin_kernel_release/kernel/include/linux/kernel.h"
	.file 150 "/home/jenkins/slaves-220/workspace/chipset_component_VV_B100_Open_Source/component_code/vendor/huawei/extra/build/build_script/austin_kernel_release/kernel/arch/arm64/include/asm/thread_info.h"
	.file 151 "/home/jenkins/slaves-220/workspace/chipset_component_VV_B100_Open_Source/component_code/vendor/huawei/extra/build/build_script/austin_kernel_release/kernel/include/chipset_common/kernel_harden/kaslr.h"
	.file 152 "/home/jenkins/slaves-220/workspace/chipset_component_VV_B100_Open_Source/component_code/vendor/huawei/extra/build/build_script/austin_kernel_release/kernel/arch/arm64/include/asm/hwcap.h"
	.file 153 "/home/jenkins/slaves-220/workspace/chipset_component_VV_B100_Open_Source/component_code/vendor/huawei/extra/build/build_script/austin_kernel_release/kernel/arch/arm64/include/asm/memory.h"
	.file 154 "/home/jenkins/slaves-220/workspace/chipset_component_VV_B100_Open_Source/component_code/vendor/huawei/extra/build/build_script/austin_kernel_release/kernel/include/linux/jiffies.h"
	.file 155 "/home/jenkins/slaves-220/workspace/chipset_component_VV_B100_Open_Source/component_code/vendor/huawei/extra/build/build_script/austin_kernel_release/kernel/arch/arm64/include/asm/smp.h"
	.file 156 "/home/jenkins/slaves-220/workspace/chipset_component_VV_B100_Open_Source/component_code/vendor/huawei/extra/build/build_script/austin_kernel_release/kernel/include/asm-generic/percpu.h"
	.file 157 "/home/jenkins/slaves-220/workspace/chipset_component_VV_B100_Open_Source/component_code/vendor/huawei/extra/build/build_script/austin_kernel_release/kernel/include/linux/debug_locks.h"
	.file 158 "/home/jenkins/slaves-220/workspace/chipset_component_VV_B100_Open_Source/component_code/vendor/huawei/extra/build/build_script/austin_kernel_release/kernel/include/asm-generic/pgtable.h"
	.file 159 "/home/jenkins/slaves-220/workspace/chipset_component_VV_B100_Open_Source/component_code/vendor/huawei/extra/build/build_script/austin_kernel_release/kernel/include/linux/highuid.h"
	.file 160 "/home/jenkins/slaves-220/workspace/chipset_component_VV_B100_Open_Source/component_code/vendor/huawei/extra/build/build_script/austin_kernel_release/kernel/arch/arm64/include/asm/cpufeature.h"
	.file 161 "/home/jenkins/slaves-220/workspace/chipset_component_VV_B100_Open_Source/component_code/vendor/huawei/extra/build/build_script/austin_kernel_release/kernel/arch/arm64/include/asm/hardirq.h"
	.file 162 "/home/jenkins/slaves-220/workspace/chipset_component_VV_B100_Open_Source/component_code/vendor/huawei/extra/build/build_script/austin_kernel_release/kernel/include/linux/cgroup.h"
	.file 163 "/home/jenkins/slaves-220/workspace/chipset_component_VV_B100_Open_Source/component_code/vendor/huawei/extra/build/build_script/austin_kernel_release/kernel/include/linux/slab.h"